ARM GAS  C:\Users\MONICA~1\AppData\Local\Temp\ccm12Pzq.s 			page 1


   1              		.syntax unified
   2              		.cpu cortex-m3
   3              		.fpu softvfp
   4              		.eabi_attribute 20, 1
   5              		.eabi_attribute 21, 1
   6              		.eabi_attribute 23, 3
   7              		.eabi_attribute 24, 1
   8              		.eabi_attribute 25, 1
   9              		.eabi_attribute 26, 1
  10              		.eabi_attribute 30, 6
  11              		.eabi_attribute 34, 1
  12              		.eabi_attribute 18, 4
  13              		.thumb
  14              		.file	"cyfitter_cfg.c"
  15              		.text
  16              	.Ltext0:
  17              		.cfi_sections	.debug_frame
  18              		.section	.text.CYMEMZERO,"ax",%progbits
  19              		.align	2
  20              		.thumb
  21              		.thumb_func
  22              		.type	CYMEMZERO, %function
  23              	CYMEMZERO:
  24              	.LFB0:
  25              		.file 1 ".\\Generated_Source\\PSoC5\\cyfitter_cfg.c"
   1:.\Generated_Source\PSoC5/cyfitter_cfg.c **** /*******************************************************************************
   2:.\Generated_Source\PSoC5/cyfitter_cfg.c **** * File Name: cyfitter_cfg.c
   3:.\Generated_Source\PSoC5/cyfitter_cfg.c **** * 
   4:.\Generated_Source\PSoC5/cyfitter_cfg.c **** * PSoC Creator  3.3 CP3
   5:.\Generated_Source\PSoC5/cyfitter_cfg.c **** *
   6:.\Generated_Source\PSoC5/cyfitter_cfg.c **** * Description:
   7:.\Generated_Source\PSoC5/cyfitter_cfg.c **** * This file contains device initialization code.
   8:.\Generated_Source\PSoC5/cyfitter_cfg.c **** * Except for the user defined sections in CyClockStartupError(), this file should not be modified.
   9:.\Generated_Source\PSoC5/cyfitter_cfg.c **** * This file is automatically generated by PSoC Creator.
  10:.\Generated_Source\PSoC5/cyfitter_cfg.c **** *
  11:.\Generated_Source\PSoC5/cyfitter_cfg.c **** ********************************************************************************
  12:.\Generated_Source\PSoC5/cyfitter_cfg.c **** * Copyright (c) 2007-2016 Cypress Semiconductor.  All rights reserved.
  13:.\Generated_Source\PSoC5/cyfitter_cfg.c **** * You may use this file only in accordance with the license, terms, conditions, 
  14:.\Generated_Source\PSoC5/cyfitter_cfg.c **** * disclaimers, and limitations in the end user license agreement accompanying 
  15:.\Generated_Source\PSoC5/cyfitter_cfg.c **** * the software package with which this file was provided.
  16:.\Generated_Source\PSoC5/cyfitter_cfg.c **** ********************************************************************************/
  17:.\Generated_Source\PSoC5/cyfitter_cfg.c **** 
  18:.\Generated_Source\PSoC5/cyfitter_cfg.c **** #include <string.h>
  19:.\Generated_Source\PSoC5/cyfitter_cfg.c **** #include "cytypes.h"
  20:.\Generated_Source\PSoC5/cyfitter_cfg.c **** #include "cydevice_trm.h"
  21:.\Generated_Source\PSoC5/cyfitter_cfg.c **** #include "cyfitter.h"
  22:.\Generated_Source\PSoC5/cyfitter_cfg.c **** #include "CyLib.h"
  23:.\Generated_Source\PSoC5/cyfitter_cfg.c **** #include "cyfitter_cfg.h"
  24:.\Generated_Source\PSoC5/cyfitter_cfg.c **** 
  25:.\Generated_Source\PSoC5/cyfitter_cfg.c **** #define CY_NEED_CYCLOCKSTARTUPERROR 1
  26:.\Generated_Source\PSoC5/cyfitter_cfg.c **** 
  27:.\Generated_Source\PSoC5/cyfitter_cfg.c **** 
  28:.\Generated_Source\PSoC5/cyfitter_cfg.c **** #if defined(__GNUC__) || defined(__ARMCC_VERSION)
  29:.\Generated_Source\PSoC5/cyfitter_cfg.c ****     #define CYPACKED 
  30:.\Generated_Source\PSoC5/cyfitter_cfg.c ****     #define CYPACKED_ATTR __attribute__ ((packed))
  31:.\Generated_Source\PSoC5/cyfitter_cfg.c ****     #define CYALIGNED __attribute__ ((aligned))
  32:.\Generated_Source\PSoC5/cyfitter_cfg.c ****     #define CY_CFG_UNUSED __attribute__ ((unused))
ARM GAS  C:\Users\MONICA~1\AppData\Local\Temp\ccm12Pzq.s 			page 2


  33:.\Generated_Source\PSoC5/cyfitter_cfg.c ****     #ifndef CY_CFG_SECTION
  34:.\Generated_Source\PSoC5/cyfitter_cfg.c ****         #define CY_CFG_SECTION __attribute__ ((section(".psocinit")))
  35:.\Generated_Source\PSoC5/cyfitter_cfg.c ****     #endif
  36:.\Generated_Source\PSoC5/cyfitter_cfg.c ****     
  37:.\Generated_Source\PSoC5/cyfitter_cfg.c ****     #if CYDEV_CONFIGURATION_DMA
  38:.\Generated_Source\PSoC5/cyfitter_cfg.c ****         #if (defined(__ARMCC_VERSION) || defined(__GNUC__))
  39:.\Generated_Source\PSoC5/cyfitter_cfg.c ****             #ifndef DMAINITSEC
  40:.\Generated_Source\PSoC5/cyfitter_cfg.c ****                 #define DMAINITSEC __attribute__ ((section(".dma_init")))
  41:.\Generated_Source\PSoC5/cyfitter_cfg.c ****             #endif
  42:.\Generated_Source\PSoC5/cyfitter_cfg.c ****         #elif defined(__ICCARM__)
  43:.\Generated_Source\PSoC5/cyfitter_cfg.c ****             #define DMAINITSEC _Pragma("location=\".dma_init\"")
  44:.\Generated_Source\PSoC5/cyfitter_cfg.c ****         #endif
  45:.\Generated_Source\PSoC5/cyfitter_cfg.c ****     #else
  46:.\Generated_Source\PSoC5/cyfitter_cfg.c ****         #define DMAINITSEC
  47:.\Generated_Source\PSoC5/cyfitter_cfg.c ****     #endif
  48:.\Generated_Source\PSoC5/cyfitter_cfg.c **** 
  49:.\Generated_Source\PSoC5/cyfitter_cfg.c ****     #if defined(__ARMCC_VERSION)
  50:.\Generated_Source\PSoC5/cyfitter_cfg.c ****         #define CY_CFG_MEMORY_BARRIER() __memory_changed()
  51:.\Generated_Source\PSoC5/cyfitter_cfg.c ****     #else
  52:.\Generated_Source\PSoC5/cyfitter_cfg.c ****         #define CY_CFG_MEMORY_BARRIER() __sync_synchronize()
  53:.\Generated_Source\PSoC5/cyfitter_cfg.c ****     #endif
  54:.\Generated_Source\PSoC5/cyfitter_cfg.c ****     
  55:.\Generated_Source\PSoC5/cyfitter_cfg.c **** #elif defined(__ICCARM__)
  56:.\Generated_Source\PSoC5/cyfitter_cfg.c ****     #include <intrinsics.h>
  57:.\Generated_Source\PSoC5/cyfitter_cfg.c **** 
  58:.\Generated_Source\PSoC5/cyfitter_cfg.c ****     #define CYPACKED __packed
  59:.\Generated_Source\PSoC5/cyfitter_cfg.c ****     #define CYPACKED_ATTR 
  60:.\Generated_Source\PSoC5/cyfitter_cfg.c ****     #define CYALIGNED _Pragma("data_alignment=4")
  61:.\Generated_Source\PSoC5/cyfitter_cfg.c ****     #define CY_CFG_UNUSED _Pragma("diag_suppress=Pe177")
  62:.\Generated_Source\PSoC5/cyfitter_cfg.c ****     #define CY_CFG_SECTION _Pragma("location=\".psocinit\"")
  63:.\Generated_Source\PSoC5/cyfitter_cfg.c ****     
  64:.\Generated_Source\PSoC5/cyfitter_cfg.c ****     #if CYDEV_CONFIGURATION_DMA
  65:.\Generated_Source\PSoC5/cyfitter_cfg.c ****         #if (defined(__ARMCC_VERSION) || defined(__GNUC__))
  66:.\Generated_Source\PSoC5/cyfitter_cfg.c ****             #ifndef DMAINITSEC
  67:.\Generated_Source\PSoC5/cyfitter_cfg.c ****                 #define DMAINITSEC __attribute__ ((section(".dma_init")))
  68:.\Generated_Source\PSoC5/cyfitter_cfg.c ****             #endif
  69:.\Generated_Source\PSoC5/cyfitter_cfg.c ****         #elif defined(__ICCARM__)
  70:.\Generated_Source\PSoC5/cyfitter_cfg.c ****             #define DMAINITSEC _Pragma("location=\".dma_init\"")
  71:.\Generated_Source\PSoC5/cyfitter_cfg.c ****         #endif
  72:.\Generated_Source\PSoC5/cyfitter_cfg.c ****     #else
  73:.\Generated_Source\PSoC5/cyfitter_cfg.c ****         #define DMAINITSEC
  74:.\Generated_Source\PSoC5/cyfitter_cfg.c ****     #endif
  75:.\Generated_Source\PSoC5/cyfitter_cfg.c **** 
  76:.\Generated_Source\PSoC5/cyfitter_cfg.c ****     #define CY_CFG_MEMORY_BARRIER() __DMB()
  77:.\Generated_Source\PSoC5/cyfitter_cfg.c ****     
  78:.\Generated_Source\PSoC5/cyfitter_cfg.c **** #else
  79:.\Generated_Source\PSoC5/cyfitter_cfg.c ****     #error Unsupported toolchain
  80:.\Generated_Source\PSoC5/cyfitter_cfg.c **** #endif
  81:.\Generated_Source\PSoC5/cyfitter_cfg.c **** 
  82:.\Generated_Source\PSoC5/cyfitter_cfg.c **** 
  83:.\Generated_Source\PSoC5/cyfitter_cfg.c **** CY_CFG_UNUSED
  84:.\Generated_Source\PSoC5/cyfitter_cfg.c **** static void CYMEMZERO(void *s, size_t n);
  85:.\Generated_Source\PSoC5/cyfitter_cfg.c **** CY_CFG_UNUSED
  86:.\Generated_Source\PSoC5/cyfitter_cfg.c **** static void CYMEMZERO(void *s, size_t n)
  87:.\Generated_Source\PSoC5/cyfitter_cfg.c **** {
  26              		.loc 1 87 0
  27              		.cfi_startproc
ARM GAS  C:\Users\MONICA~1\AppData\Local\Temp\ccm12Pzq.s 			page 3


  28              		@ args = 0, pretend = 0, frame = 8
  29              		@ frame_needed = 1, uses_anonymous_args = 0
  30 0000 80B5     		push	{r7, lr}
  31              		.cfi_def_cfa_offset 8
  32              		.cfi_offset 7, -8
  33              		.cfi_offset 14, -4
  34 0002 82B0     		sub	sp, sp, #8
  35              		.cfi_def_cfa_offset 16
  36 0004 00AF     		add	r7, sp, #0
  37              		.cfi_def_cfa_register 7
  38 0006 7860     		str	r0, [r7, #4]
  39 0008 3960     		str	r1, [r7]
  88:.\Generated_Source\PSoC5/cyfitter_cfg.c **** 	(void)memset(s, 0, n);
  40              		.loc 1 88 0
  41 000a 7868     		ldr	r0, [r7, #4]
  42 000c 0021     		movs	r1, #0
  43 000e 3A68     		ldr	r2, [r7]
  44 0010 FFF7FEFF 		bl	memset
  89:.\Generated_Source\PSoC5/cyfitter_cfg.c **** }
  45              		.loc 1 89 0
  46 0014 0837     		adds	r7, r7, #8
  47              		.cfi_def_cfa_offset 8
  48 0016 BD46     		mov	sp, r7
  49              		.cfi_def_cfa_register 13
  50              		@ sp needed
  51 0018 80BD     		pop	{r7, pc}
  52              		.cfi_endproc
  53              	.LFE0:
  54              		.size	CYMEMZERO, .-CYMEMZERO
  55 001a 00BF     		.section	.text.CYCONFIGCPY,"ax",%progbits
  56              		.align	2
  57              		.thumb
  58              		.thumb_func
  59              		.type	CYCONFIGCPY, %function
  60              	CYCONFIGCPY:
  61              	.LFB1:
  90:.\Generated_Source\PSoC5/cyfitter_cfg.c **** CY_CFG_UNUSED
  91:.\Generated_Source\PSoC5/cyfitter_cfg.c **** static void CYCONFIGCPY(void *dest, const void *src, size_t n);
  92:.\Generated_Source\PSoC5/cyfitter_cfg.c **** CY_CFG_UNUSED
  93:.\Generated_Source\PSoC5/cyfitter_cfg.c **** static void CYCONFIGCPY(void *dest, const void *src, size_t n)
  94:.\Generated_Source\PSoC5/cyfitter_cfg.c **** {
  62              		.loc 1 94 0
  63              		.cfi_startproc
  64              		@ args = 0, pretend = 0, frame = 16
  65              		@ frame_needed = 1, uses_anonymous_args = 0
  66 0000 80B5     		push	{r7, lr}
  67              		.cfi_def_cfa_offset 8
  68              		.cfi_offset 7, -8
  69              		.cfi_offset 14, -4
  70 0002 84B0     		sub	sp, sp, #16
  71              		.cfi_def_cfa_offset 24
  72 0004 00AF     		add	r7, sp, #0
  73              		.cfi_def_cfa_register 7
  74 0006 F860     		str	r0, [r7, #12]
  75 0008 B960     		str	r1, [r7, #8]
  76 000a 7A60     		str	r2, [r7, #4]
  95:.\Generated_Source\PSoC5/cyfitter_cfg.c **** 	(void)memcpy(dest, src, n);
ARM GAS  C:\Users\MONICA~1\AppData\Local\Temp\ccm12Pzq.s 			page 4


  77              		.loc 1 95 0
  78 000c F868     		ldr	r0, [r7, #12]
  79 000e B968     		ldr	r1, [r7, #8]
  80 0010 7A68     		ldr	r2, [r7, #4]
  81 0012 FFF7FEFF 		bl	memcpy
  96:.\Generated_Source\PSoC5/cyfitter_cfg.c **** }
  82              		.loc 1 96 0
  83 0016 1037     		adds	r7, r7, #16
  84              		.cfi_def_cfa_offset 8
  85 0018 BD46     		mov	sp, r7
  86              		.cfi_def_cfa_register 13
  87              		@ sp needed
  88 001a 80BD     		pop	{r7, pc}
  89              		.cfi_endproc
  90              	.LFE1:
  91              		.size	CYCONFIGCPY, .-CYCONFIGCPY
  92              		.section	.text.CYCONFIGCPYCODE,"ax",%progbits
  93              		.align	2
  94              		.thumb
  95              		.thumb_func
  96              		.type	CYCONFIGCPYCODE, %function
  97              	CYCONFIGCPYCODE:
  98              	.LFB2:
  97:.\Generated_Source\PSoC5/cyfitter_cfg.c **** CY_CFG_UNUSED
  98:.\Generated_Source\PSoC5/cyfitter_cfg.c **** static void CYCONFIGCPYCODE(void *dest, const void *src, size_t n);
  99:.\Generated_Source\PSoC5/cyfitter_cfg.c **** CY_CFG_UNUSED
 100:.\Generated_Source\PSoC5/cyfitter_cfg.c **** static void CYCONFIGCPYCODE(void *dest, const void *src, size_t n)
 101:.\Generated_Source\PSoC5/cyfitter_cfg.c **** {
  99              		.loc 1 101 0
 100              		.cfi_startproc
 101              		@ args = 0, pretend = 0, frame = 16
 102              		@ frame_needed = 1, uses_anonymous_args = 0
 103 0000 80B5     		push	{r7, lr}
 104              		.cfi_def_cfa_offset 8
 105              		.cfi_offset 7, -8
 106              		.cfi_offset 14, -4
 107 0002 84B0     		sub	sp, sp, #16
 108              		.cfi_def_cfa_offset 24
 109 0004 00AF     		add	r7, sp, #0
 110              		.cfi_def_cfa_register 7
 111 0006 F860     		str	r0, [r7, #12]
 112 0008 B960     		str	r1, [r7, #8]
 113 000a 7A60     		str	r2, [r7, #4]
 102:.\Generated_Source\PSoC5/cyfitter_cfg.c **** 	(void)memcpy(dest, src, n);
 114              		.loc 1 102 0
 115 000c F868     		ldr	r0, [r7, #12]
 116 000e B968     		ldr	r1, [r7, #8]
 117 0010 7A68     		ldr	r2, [r7, #4]
 118 0012 FFF7FEFF 		bl	memcpy
 103:.\Generated_Source\PSoC5/cyfitter_cfg.c **** }
 119              		.loc 1 103 0
 120 0016 1037     		adds	r7, r7, #16
 121              		.cfi_def_cfa_offset 8
 122 0018 BD46     		mov	sp, r7
 123              		.cfi_def_cfa_register 13
 124              		@ sp needed
 125 001a 80BD     		pop	{r7, pc}
ARM GAS  C:\Users\MONICA~1\AppData\Local\Temp\ccm12Pzq.s 			page 5


 126              		.cfi_endproc
 127              	.LFE2:
 128              		.size	CYCONFIGCPYCODE, .-CYCONFIGCPYCODE
 129              		.section	.text.CyClockStartupError,"ax",%progbits
 130              		.align	2
 131              		.thumb
 132              		.thumb_func
 133              		.type	CyClockStartupError, %function
 134              	CyClockStartupError:
 135              	.LFB3:
 104:.\Generated_Source\PSoC5/cyfitter_cfg.c **** 
 105:.\Generated_Source\PSoC5/cyfitter_cfg.c **** 
 106:.\Generated_Source\PSoC5/cyfitter_cfg.c **** 
 107:.\Generated_Source\PSoC5/cyfitter_cfg.c **** /* Clock startup error codes                                                   */
 108:.\Generated_Source\PSoC5/cyfitter_cfg.c **** #define CYCLOCKSTART_NO_ERROR    0u
 109:.\Generated_Source\PSoC5/cyfitter_cfg.c **** #define CYCLOCKSTART_XTAL_ERROR  1u
 110:.\Generated_Source\PSoC5/cyfitter_cfg.c **** #define CYCLOCKSTART_32KHZ_ERROR 2u
 111:.\Generated_Source\PSoC5/cyfitter_cfg.c **** #define CYCLOCKSTART_PLL_ERROR   3u
 112:.\Generated_Source\PSoC5/cyfitter_cfg.c **** 
 113:.\Generated_Source\PSoC5/cyfitter_cfg.c **** #ifdef CY_NEED_CYCLOCKSTARTUPERROR
 114:.\Generated_Source\PSoC5/cyfitter_cfg.c **** /*******************************************************************************
 115:.\Generated_Source\PSoC5/cyfitter_cfg.c **** * Function Name: CyClockStartupError
 116:.\Generated_Source\PSoC5/cyfitter_cfg.c **** ********************************************************************************
 117:.\Generated_Source\PSoC5/cyfitter_cfg.c **** * Summary:
 118:.\Generated_Source\PSoC5/cyfitter_cfg.c **** *  If an error is encountered during clock configuration (crystal startup error,
 119:.\Generated_Source\PSoC5/cyfitter_cfg.c **** *  PLL lock error, etc.), the system will end up here.  Unless reimplemented by
 120:.\Generated_Source\PSoC5/cyfitter_cfg.c **** *  the customer, this function will stop in an infinite loop.
 121:.\Generated_Source\PSoC5/cyfitter_cfg.c **** *
 122:.\Generated_Source\PSoC5/cyfitter_cfg.c **** * Parameters:
 123:.\Generated_Source\PSoC5/cyfitter_cfg.c **** *   void
 124:.\Generated_Source\PSoC5/cyfitter_cfg.c **** *
 125:.\Generated_Source\PSoC5/cyfitter_cfg.c **** * Return:
 126:.\Generated_Source\PSoC5/cyfitter_cfg.c **** *   void
 127:.\Generated_Source\PSoC5/cyfitter_cfg.c **** *
 128:.\Generated_Source\PSoC5/cyfitter_cfg.c **** *******************************************************************************/
 129:.\Generated_Source\PSoC5/cyfitter_cfg.c **** CY_CFG_UNUSED
 130:.\Generated_Source\PSoC5/cyfitter_cfg.c **** static void CyClockStartupError(uint8 errorCode);
 131:.\Generated_Source\PSoC5/cyfitter_cfg.c **** CY_CFG_UNUSED
 132:.\Generated_Source\PSoC5/cyfitter_cfg.c **** static void CyClockStartupError(uint8 errorCode)
 133:.\Generated_Source\PSoC5/cyfitter_cfg.c **** {
 136              		.loc 1 133 0
 137              		.cfi_startproc
 138              		@ args = 0, pretend = 0, frame = 8
 139              		@ frame_needed = 1, uses_anonymous_args = 0
 140              		@ link register save eliminated.
 141 0000 80B4     		push	{r7}
 142              		.cfi_def_cfa_offset 4
 143              		.cfi_offset 7, -4
 144 0002 83B0     		sub	sp, sp, #12
 145              		.cfi_def_cfa_offset 16
 146 0004 00AF     		add	r7, sp, #0
 147              		.cfi_def_cfa_register 7
 148 0006 0346     		mov	r3, r0
 149 0008 FB71     		strb	r3, [r7, #7]
 150              	.L5:
 134:.\Generated_Source\PSoC5/cyfitter_cfg.c ****     /* To remove the compiler warning if errorCode not used.                */
 135:.\Generated_Source\PSoC5/cyfitter_cfg.c ****     errorCode = errorCode;
ARM GAS  C:\Users\MONICA~1\AppData\Local\Temp\ccm12Pzq.s 			page 6


 136:.\Generated_Source\PSoC5/cyfitter_cfg.c **** 
 137:.\Generated_Source\PSoC5/cyfitter_cfg.c ****     /* `#START CyClockStartupError` */
 138:.\Generated_Source\PSoC5/cyfitter_cfg.c **** 
 139:.\Generated_Source\PSoC5/cyfitter_cfg.c ****     /* If we have a clock startup error (bad MHz crystal, PLL lock, etc.),  */
 140:.\Generated_Source\PSoC5/cyfitter_cfg.c ****     /* we will end up here to allow the customer to implement something to  */
 141:.\Generated_Source\PSoC5/cyfitter_cfg.c ****     /* deal with the clock condition.                                       */
 142:.\Generated_Source\PSoC5/cyfitter_cfg.c **** 
 143:.\Generated_Source\PSoC5/cyfitter_cfg.c ****     /* `#END` */
 144:.\Generated_Source\PSoC5/cyfitter_cfg.c **** 
 145:.\Generated_Source\PSoC5/cyfitter_cfg.c ****     /* If nothing else, stop here since the clocks have not started         */
 146:.\Generated_Source\PSoC5/cyfitter_cfg.c ****     /* correctly.                                                           */
 147:.\Generated_Source\PSoC5/cyfitter_cfg.c ****     while(1) {}
 151              		.loc 1 147 0 discriminator 1
 152 000a FEE7     		b	.L5
 153              		.cfi_endproc
 154              	.LFE3:
 155              		.size	CyClockStartupError, .-CyClockStartupError
 156              		.section	.text.cfg_dma_init,"ax",%progbits
 157              		.align	2
 158              		.thumb
 159              		.thumb_func
 160              		.type	cfg_dma_init, %function
 161              	cfg_dma_init:
 162              	.LFB4:
 148:.\Generated_Source\PSoC5/cyfitter_cfg.c **** }
 149:.\Generated_Source\PSoC5/cyfitter_cfg.c **** #endif
 150:.\Generated_Source\PSoC5/cyfitter_cfg.c **** 
 151:.\Generated_Source\PSoC5/cyfitter_cfg.c **** /* IOPORT_7 Address: CYDEV_PRTDSI_PRT12_BASE Size (bytes): 6 */
 152:.\Generated_Source\PSoC5/cyfitter_cfg.c **** #define BS_IOPORT_7_VAL ((const uint8 CYFAR *)0x48000000u)
 153:.\Generated_Source\PSoC5/cyfitter_cfg.c **** 
 154:.\Generated_Source\PSoC5/cyfitter_cfg.c **** /* IDMUX_IRQ Address: CYREG_IDMUX_IRQ_CTL0 Size (bytes): 8 */
 155:.\Generated_Source\PSoC5/cyfitter_cfg.c **** #define BS_IDMUX_IRQ_VAL ((const uint8 CYFAR *)0x48000008u)
 156:.\Generated_Source\PSoC5/cyfitter_cfg.c **** 
 157:.\Generated_Source\PSoC5/cyfitter_cfg.c **** /* UDB_0_3_1_CONFIG Address: CYDEV_UCFG_B0_P5_U1_BASE Size (bytes): 128 */
 158:.\Generated_Source\PSoC5/cyfitter_cfg.c **** #define BS_UDB_0_3_1_CONFIG_VAL ((const uint8 CYFAR *)0x48000010u)
 159:.\Generated_Source\PSoC5/cyfitter_cfg.c **** 
 160:.\Generated_Source\PSoC5/cyfitter_cfg.c **** /* DSI0_0_HV_ROUTING Address: CYDEV_UCFG_DSI13_BASE + 0x00000080u Size (bytes): 128 */
 161:.\Generated_Source\PSoC5/cyfitter_cfg.c **** #define BS_DSI0_0_HV_ROUTING_VAL ((const uint8 CYFAR *)0x48000090u)
 162:.\Generated_Source\PSoC5/cyfitter_cfg.c **** 
 163:.\Generated_Source\PSoC5/cyfitter_cfg.c **** /* DSISWITCH_0_1 Address: CYDEV_UCFG_DSI12_BASE Size (bytes): 128 */
 164:.\Generated_Source\PSoC5/cyfitter_cfg.c **** #define BS_DSISWITCH_0_1_VAL ((const uint8 CYFAR *)0x48000110u)
 165:.\Generated_Source\PSoC5/cyfitter_cfg.c **** 
 166:.\Generated_Source\PSoC5/cyfitter_cfg.c **** /* DSI0_1_HV_ROUTING Address: CYDEV_UCFG_DSI12_BASE + 0x00000080u Size (bytes): 128 */
 167:.\Generated_Source\PSoC5/cyfitter_cfg.c **** #define BS_DSI0_1_HV_ROUTING_VAL ((const uint8 CYFAR *)0x48000190u)
 168:.\Generated_Source\PSoC5/cyfitter_cfg.c **** 
 169:.\Generated_Source\PSoC5/cyfitter_cfg.c **** /* DSI0_2_HV_ROUTING Address: CYDEV_UCFG_DSI7_BASE + 0x00000080u Size (bytes): 128 */
 170:.\Generated_Source\PSoC5/cyfitter_cfg.c **** #define BS_DSI0_2_HV_ROUTING_VAL ((const uint8 CYFAR *)0x48000210u)
 171:.\Generated_Source\PSoC5/cyfitter_cfg.c **** 
 172:.\Generated_Source\PSoC5/cyfitter_cfg.c **** /* DSISWITCH_0_3 Address: CYDEV_UCFG_DSI6_BASE Size (bytes): 128 */
 173:.\Generated_Source\PSoC5/cyfitter_cfg.c **** #define BS_DSISWITCH_0_3_VAL ((const uint8 CYFAR *)0x48000290u)
 174:.\Generated_Source\PSoC5/cyfitter_cfg.c **** 
 175:.\Generated_Source\PSoC5/cyfitter_cfg.c **** /* DSI0_3_HV_ROUTING Address: CYDEV_UCFG_DSI6_BASE + 0x00000080u Size (bytes): 128 */
 176:.\Generated_Source\PSoC5/cyfitter_cfg.c **** #define BS_DSI0_3_HV_ROUTING_VAL ((const uint8 CYFAR *)0x48000310u)
 177:.\Generated_Source\PSoC5/cyfitter_cfg.c **** 
 178:.\Generated_Source\PSoC5/cyfitter_cfg.c **** /* DSI0_4_HV_ROUTING Address: CYDEV_UCFG_DSI5_BASE + 0x00000080u Size (bytes): 128 */
 179:.\Generated_Source\PSoC5/cyfitter_cfg.c **** #define BS_DSI0_4_HV_ROUTING_VAL ((const uint8 CYFAR *)0x48000390u)
 180:.\Generated_Source\PSoC5/cyfitter_cfg.c **** 
ARM GAS  C:\Users\MONICA~1\AppData\Local\Temp\ccm12Pzq.s 			page 7


 181:.\Generated_Source\PSoC5/cyfitter_cfg.c **** /* DSISWITCH_0_5 Address: CYDEV_UCFG_DSI4_BASE Size (bytes): 128 */
 182:.\Generated_Source\PSoC5/cyfitter_cfg.c **** #define BS_DSISWITCH_0_5_VAL ((const uint8 CYFAR *)0x48000410u)
 183:.\Generated_Source\PSoC5/cyfitter_cfg.c **** 
 184:.\Generated_Source\PSoC5/cyfitter_cfg.c **** /* DSI0_5_HV_ROUTING Address: CYDEV_UCFG_DSI4_BASE + 0x00000080u Size (bytes): 128 */
 185:.\Generated_Source\PSoC5/cyfitter_cfg.c **** #define BS_DSI0_5_HV_ROUTING_VAL ((const uint8 CYFAR *)0x48000490u)
 186:.\Generated_Source\PSoC5/cyfitter_cfg.c **** 
 187:.\Generated_Source\PSoC5/cyfitter_cfg.c **** /* UDB_1_0_HV_ROUTING Address: CYDEV_UCFG_B1_P5_ROUTE_BASE + 0x00000080u Size (bytes): 128 */
 188:.\Generated_Source\PSoC5/cyfitter_cfg.c **** #define BS_UDB_1_0_HV_ROUTING_VAL ((const uint8 CYFAR *)0x48000510u)
 189:.\Generated_Source\PSoC5/cyfitter_cfg.c **** 
 190:.\Generated_Source\PSoC5/cyfitter_cfg.c **** /* UDB_2_0_HV_ROUTING Address: CYDEV_UCFG_B1_P2_ROUTE_BASE + 0x00000080u Size (bytes): 128 */
 191:.\Generated_Source\PSoC5/cyfitter_cfg.c **** #define BS_UDB_2_0_HV_ROUTING_VAL ((const uint8 CYFAR *)0x48000590u)
 192:.\Generated_Source\PSoC5/cyfitter_cfg.c **** 
 193:.\Generated_Source\PSoC5/cyfitter_cfg.c **** /* UDB_1_1_HV_ROUTING Address: CYDEV_UCFG_B1_P4_ROUTE_BASE + 0x00000080u Size (bytes): 128 */
 194:.\Generated_Source\PSoC5/cyfitter_cfg.c **** #define BS_UDB_1_1_HV_ROUTING_VAL ((const uint8 CYFAR *)0x48000610u)
 195:.\Generated_Source\PSoC5/cyfitter_cfg.c **** 
 196:.\Generated_Source\PSoC5/cyfitter_cfg.c **** /* UDB_2_1_HV_ROUTING Address: CYDEV_UCFG_B1_P3_ROUTE_BASE + 0x00000080u Size (bytes): 128 */
 197:.\Generated_Source\PSoC5/cyfitter_cfg.c **** #define BS_UDB_2_1_HV_ROUTING_VAL ((const uint8 CYFAR *)0x48000690u)
 198:.\Generated_Source\PSoC5/cyfitter_cfg.c **** 
 199:.\Generated_Source\PSoC5/cyfitter_cfg.c **** /* UDB_1_2_HV_ROUTING Address: CYDEV_UCFG_B0_P4_ROUTE_BASE + 0x00000080u Size (bytes): 128 */
 200:.\Generated_Source\PSoC5/cyfitter_cfg.c **** #define BS_UDB_1_2_HV_ROUTING_VAL ((const uint8 CYFAR *)0x48000710u)
 201:.\Generated_Source\PSoC5/cyfitter_cfg.c **** 
 202:.\Generated_Source\PSoC5/cyfitter_cfg.c **** /* UDBSWITCH_0_3 Address: CYDEV_UCFG_B0_P5_ROUTE_BASE Size (bytes): 128 */
 203:.\Generated_Source\PSoC5/cyfitter_cfg.c **** #define BS_UDBSWITCH_0_3_VAL ((const uint8 CYFAR *)0x48000790u)
 204:.\Generated_Source\PSoC5/cyfitter_cfg.c **** 
 205:.\Generated_Source\PSoC5/cyfitter_cfg.c **** /* DSISWITCH_1_0 Address: CYDEV_UCFG_DSI9_BASE Size (bytes): 128 */
 206:.\Generated_Source\PSoC5/cyfitter_cfg.c **** #define BS_DSISWITCH_1_0_VAL ((const uint8 CYFAR *)0x48000810u)
 207:.\Generated_Source\PSoC5/cyfitter_cfg.c **** 
 208:.\Generated_Source\PSoC5/cyfitter_cfg.c **** /* DSI3_0_HV_ROUTING Address: CYDEV_UCFG_DSI9_BASE + 0x00000080u Size (bytes): 128 */
 209:.\Generated_Source\PSoC5/cyfitter_cfg.c **** #define BS_DSI3_0_HV_ROUTING_VAL ((const uint8 CYFAR *)0x48000890u)
 210:.\Generated_Source\PSoC5/cyfitter_cfg.c **** 
 211:.\Generated_Source\PSoC5/cyfitter_cfg.c **** /* DSISWITCH_1_1 Address: CYDEV_UCFG_DSI8_BASE Size (bytes): 128 */
 212:.\Generated_Source\PSoC5/cyfitter_cfg.c **** #define BS_DSISWITCH_1_1_VAL ((const uint8 CYFAR *)0x48000910u)
 213:.\Generated_Source\PSoC5/cyfitter_cfg.c **** 
 214:.\Generated_Source\PSoC5/cyfitter_cfg.c **** /* DSI3_1_HV_ROUTING Address: CYDEV_UCFG_DSI8_BASE + 0x00000080u Size (bytes): 128 */
 215:.\Generated_Source\PSoC5/cyfitter_cfg.c **** #define BS_DSI3_1_HV_ROUTING_VAL ((const uint8 CYFAR *)0x48000990u)
 216:.\Generated_Source\PSoC5/cyfitter_cfg.c **** 
 217:.\Generated_Source\PSoC5/cyfitter_cfg.c **** /* DSI3_2_HV_ROUTING Address: CYDEV_UCFG_DSI3_BASE + 0x00000080u Size (bytes): 128 */
 218:.\Generated_Source\PSoC5/cyfitter_cfg.c **** #define BS_DSI3_2_HV_ROUTING_VAL ((const uint8 CYFAR *)0x48000A10u)
 219:.\Generated_Source\PSoC5/cyfitter_cfg.c **** 
 220:.\Generated_Source\PSoC5/cyfitter_cfg.c **** /* DSISWITCH_1_3 Address: CYDEV_UCFG_DSI2_BASE Size (bytes): 128 */
 221:.\Generated_Source\PSoC5/cyfitter_cfg.c **** #define BS_DSISWITCH_1_3_VAL ((const uint8 CYFAR *)0x48000A90u)
 222:.\Generated_Source\PSoC5/cyfitter_cfg.c **** 
 223:.\Generated_Source\PSoC5/cyfitter_cfg.c **** /* DSI3_3_HV_ROUTING Address: CYDEV_UCFG_DSI2_BASE + 0x00000080u Size (bytes): 128 */
 224:.\Generated_Source\PSoC5/cyfitter_cfg.c **** #define BS_DSI3_3_HV_ROUTING_VAL ((const uint8 CYFAR *)0x48000B10u)
 225:.\Generated_Source\PSoC5/cyfitter_cfg.c **** 
 226:.\Generated_Source\PSoC5/cyfitter_cfg.c **** /* IOPINS0_0 Address: CYREG_PRT0_DM0 Size (bytes): 8 */
 227:.\Generated_Source\PSoC5/cyfitter_cfg.c **** #define BS_IOPINS0_0_VAL ((const uint8 CYFAR *)0x48000B90u)
 228:.\Generated_Source\PSoC5/cyfitter_cfg.c **** 
 229:.\Generated_Source\PSoC5/cyfitter_cfg.c **** /* IOPINS0_7 Address: CYREG_PRT12_DM0 Size (bytes): 8 */
 230:.\Generated_Source\PSoC5/cyfitter_cfg.c **** #define BS_IOPINS0_7_VAL ((const uint8 CYFAR *)0x48000B98u)
 231:.\Generated_Source\PSoC5/cyfitter_cfg.c **** 
 232:.\Generated_Source\PSoC5/cyfitter_cfg.c **** /* IOPINS0_8 Address: CYREG_PRT15_DM0 Size (bytes): 8 */
 233:.\Generated_Source\PSoC5/cyfitter_cfg.c **** #define BS_IOPINS0_8_VAL ((const uint8 CYFAR *)0x48000BA0u)
 234:.\Generated_Source\PSoC5/cyfitter_cfg.c **** 
 235:.\Generated_Source\PSoC5/cyfitter_cfg.c **** /* IOPINS0_2 Address: CYREG_PRT2_DM0 Size (bytes): 8 */
 236:.\Generated_Source\PSoC5/cyfitter_cfg.c **** #define BS_IOPINS0_2_VAL ((const uint8 CYFAR *)0x48000BA8u)
 237:.\Generated_Source\PSoC5/cyfitter_cfg.c **** 
ARM GAS  C:\Users\MONICA~1\AppData\Local\Temp\ccm12Pzq.s 			page 8


 238:.\Generated_Source\PSoC5/cyfitter_cfg.c **** /* IOPINS0_3 Address: CYREG_PRT3_DM0 Size (bytes): 8 */
 239:.\Generated_Source\PSoC5/cyfitter_cfg.c **** #define BS_IOPINS0_3_VAL ((const uint8 CYFAR *)0x48000BB0u)
 240:.\Generated_Source\PSoC5/cyfitter_cfg.c **** 
 241:.\Generated_Source\PSoC5/cyfitter_cfg.c **** /* CYDEV_CLKDIST_ACFG0_CFG0 Address: CYREG_CLKDIST_ACFG0_CFG0 Size (bytes): 4 */
 242:.\Generated_Source\PSoC5/cyfitter_cfg.c **** #define BS_CYDEV_CLKDIST_ACFG0_CFG0_VAL ((const uint8 CYFAR *)0x48000BB8u)
 243:.\Generated_Source\PSoC5/cyfitter_cfg.c **** 
 244:.\Generated_Source\PSoC5/cyfitter_cfg.c **** 
 245:.\Generated_Source\PSoC5/cyfitter_cfg.c **** /*******************************************************************************
 246:.\Generated_Source\PSoC5/cyfitter_cfg.c **** * Function Name: cfg_dma_init
 247:.\Generated_Source\PSoC5/cyfitter_cfg.c **** ********************************************************************************
 248:.\Generated_Source\PSoC5/cyfitter_cfg.c **** * Summary:
 249:.\Generated_Source\PSoC5/cyfitter_cfg.c **** *  This function is used to copy device configuration data from constant values
 250:.\Generated_Source\PSoC5/cyfitter_cfg.c **** *  stored in memory into the proper chip configuration registers using DMA.  It
 251:.\Generated_Source\PSoC5/cyfitter_cfg.c **** *  pulls data out of the CFG_TD_LISTs to know exactly how/what to configure.
 252:.\Generated_Source\PSoC5/cyfitter_cfg.c **** *
 253:.\Generated_Source\PSoC5/cyfitter_cfg.c **** * Parameters:  
 254:.\Generated_Source\PSoC5/cyfitter_cfg.c **** *   void
 255:.\Generated_Source\PSoC5/cyfitter_cfg.c **** *
 256:.\Generated_Source\PSoC5/cyfitter_cfg.c **** * Return:
 257:.\Generated_Source\PSoC5/cyfitter_cfg.c **** *   void
 258:.\Generated_Source\PSoC5/cyfitter_cfg.c **** *
 259:.\Generated_Source\PSoC5/cyfitter_cfg.c **** *******************************************************************************/
 260:.\Generated_Source\PSoC5/cyfitter_cfg.c **** static void cfg_dma_init(void);
 261:.\Generated_Source\PSoC5/cyfitter_cfg.c **** static void cfg_dma_init(void)
 262:.\Generated_Source\PSoC5/cyfitter_cfg.c **** {
 163              		.loc 1 262 0
 164              		.cfi_startproc
 165              		@ args = 0, pretend = 0, frame = 8
 166              		@ frame_needed = 1, uses_anonymous_args = 0
 167              		@ link register save eliminated.
 168 0000 80B4     		push	{r7}
 169              		.cfi_def_cfa_offset 4
 170              		.cfi_offset 7, -4
 171 0002 83B0     		sub	sp, sp, #12
 172              		.cfi_def_cfa_offset 16
 173 0004 00AF     		add	r7, sp, #0
 174              		.cfi_def_cfa_register 7
 263:.\Generated_Source\PSoC5/cyfitter_cfg.c **** 	/* TD structure for little-endian systems. Does not require endian swap */
 264:.\Generated_Source\PSoC5/cyfitter_cfg.c **** 	CYPACKED struct td_t {
 265:.\Generated_Source\PSoC5/cyfitter_cfg.c **** 		uint16 size;
 266:.\Generated_Source\PSoC5/cyfitter_cfg.c **** 		uint8 next_td_ptr;
 267:.\Generated_Source\PSoC5/cyfitter_cfg.c **** 		uint8 flags;
 268:.\Generated_Source\PSoC5/cyfitter_cfg.c **** 		uint16 src;
 269:.\Generated_Source\PSoC5/cyfitter_cfg.c **** 		uint16 dest;
 270:.\Generated_Source\PSoC5/cyfitter_cfg.c **** 	} CYPACKED_ATTR;
 271:.\Generated_Source\PSoC5/cyfitter_cfg.c **** 
 272:.\Generated_Source\PSoC5/cyfitter_cfg.c **** 	/* PHUB_CH1_CFGMEM_CFG0/1 initialization data */
 273:.\Generated_Source\PSoC5/cyfitter_cfg.c **** 	DMAINITSEC static const uint8 CYCODE CH1_ADDR_DATA0[] = { 0x01u, 0x00u, 0x00u, 0x00u, 0x00u, 0x20u
 274:.\Generated_Source\PSoC5/cyfitter_cfg.c **** 
 275:.\Generated_Source\PSoC5/cyfitter_cfg.c **** 	/* PHUB_CH2_CFGMEM_CFG0/1 initialization data */
 276:.\Generated_Source\PSoC5/cyfitter_cfg.c **** 	DMAINITSEC static const uint8 CYCODE CH2_ADDR_DATA0[] = { 0x01u, 0x00u, 0x00u, 0x00u, 0x00u, 0x20u
 277:.\Generated_Source\PSoC5/cyfitter_cfg.c **** 
 278:.\Generated_Source\PSoC5/cyfitter_cfg.c **** 	/* PHUB_CH5_CFGMEM_CFG0/1 initialization data */
 279:.\Generated_Source\PSoC5/cyfitter_cfg.c **** 	DMAINITSEC static const uint8 CYCODE CH5_ADDR_DATA0[] = { 0x01u, 0x00u, 0x00u, 0x00u, 0x00u, 0x48u
 280:.\Generated_Source\PSoC5/cyfitter_cfg.c **** 
 281:.\Generated_Source\PSoC5/cyfitter_cfg.c **** 	/* PHUB_CH6_CFGMEM_CFG0/1 initialization data */
 282:.\Generated_Source\PSoC5/cyfitter_cfg.c **** 	DMAINITSEC static const uint8 CYCODE CH6_ADDR_DATA0[] = { 0x01u, 0x00u, 0x00u, 0x00u, 0x00u, 0x48u
ARM GAS  C:\Users\MONICA~1\AppData\Local\Temp\ccm12Pzq.s 			page 9


 283:.\Generated_Source\PSoC5/cyfitter_cfg.c **** 
 284:.\Generated_Source\PSoC5/cyfitter_cfg.c **** 	/* Initialization data for each DMA channel's TD registers */
 285:.\Generated_Source\PSoC5/cyfitter_cfg.c **** 	DMAINITSEC static const uint8 CYCODE DMA_TD_START_CMD[] = { 0x01u, 0x00u, 0x00u, 0x00u, 0x01u };
 286:.\Generated_Source\PSoC5/cyfitter_cfg.c **** 
 287:.\Generated_Source\PSoC5/cyfitter_cfg.c **** 	CYALIGNED static uint32 CYXDATA DMA_ZERO_VAL;
 288:.\Generated_Source\PSoC5/cyfitter_cfg.c **** 
 289:.\Generated_Source\PSoC5/cyfitter_cfg.c **** 	/* This table holds all of the initialization data necessary for the DMA
 290:.\Generated_Source\PSoC5/cyfitter_cfg.c **** 	   process to transfer data from the source location to the destination. */
 291:.\Generated_Source\PSoC5/cyfitter_cfg.c **** 	/* Source addresses can be relocated, but only when in 32bit addresses.
 292:.\Generated_Source\PSoC5/cyfitter_cfg.c **** 	   Because the standard TD table only has 16bit addresses, we generate a
 293:.\Generated_Source\PSoC5/cyfitter_cfg.c **** 	   separate CFG_TD_ADDR table for the source addresses that supports 32bit
 294:.\Generated_Source\PSoC5/cyfitter_cfg.c **** 	   addresses. */
 295:.\Generated_Source\PSoC5/cyfitter_cfg.c **** 	DMAINITSEC static const struct td_t CYCODE CFG_TD_LIST0[] = {
 296:.\Generated_Source\PSoC5/cyfitter_cfg.c **** 		/* Size, Next, Flags, Source, Destination */
 297:.\Generated_Source\PSoC5/cyfitter_cfg.c **** 		{ 8u, 0x02u, 0x23u, (uint16)(uint32)(0u), (uint16)(CYREG_PHUB_CFGMEM1_CFG0) },	/* TD 1 */
 298:.\Generated_Source\PSoC5/cyfitter_cfg.c **** 		{ 8u, 0x03u, 0x23u, (uint16)(uint32)(0u), (uint16)(CYREG_PHUB_CFGMEM2_CFG0) },	/* TD 2 */
 299:.\Generated_Source\PSoC5/cyfitter_cfg.c **** 		{ 8u, 0x04u, 0x23u, (uint16)(uint32)(0u), (uint16)(CYREG_PHUB_CFGMEM5_CFG0) },	/* TD 3 */
 300:.\Generated_Source\PSoC5/cyfitter_cfg.c **** 		{ 8u, 0x05u, 0x23u, (uint16)(uint32)(0u), (uint16)(CYREG_PHUB_CFGMEM6_CFG0) },	/* TD 4 */
 301:.\Generated_Source\PSoC5/cyfitter_cfg.c **** 		{ 5u, 0x06u, 0x23u, (uint16)(uint32)(0u), (uint16)(CYREG_PHUB_CH1_BASIC_CFG) },	/* TD 5 */
 302:.\Generated_Source\PSoC5/cyfitter_cfg.c **** 		{ 5u, 0x07u, 0x23u, (uint16)(uint32)(0u), (uint16)(CYREG_PHUB_CH2_BASIC_CFG) },	/* TD 6 */
 303:.\Generated_Source\PSoC5/cyfitter_cfg.c **** 		{ 5u, 0x08u, 0x23u, (uint16)(uint32)(0u), (uint16)(CYREG_PHUB_CH5_BASIC_CFG) },	/* TD 7 */
 304:.\Generated_Source\PSoC5/cyfitter_cfg.c **** 		{ 5u, 0xFEu, 0x23u, (uint16)(uint32)(0u), (uint16)(CYREG_PHUB_CH6_BASIC_CFG) },	/* TD 8 */
 305:.\Generated_Source\PSoC5/cyfitter_cfg.c **** 		{ 25u, 0x0Au, 0x22u, (uint16)(uint32)(0u), (uint16)(CYREG_I2C_XCFG) },	/* TD 9 */
 306:.\Generated_Source\PSoC5/cyfitter_cfg.c **** 		{ 16u, 0x0Bu, 0x22u, (uint16)(uint32)(0u), (uint16)(CYREG_PRT1_DR) },	/* TD 10 */
 307:.\Generated_Source\PSoC5/cyfitter_cfg.c **** 		{ 48u, 0xFEu, 0x22u, (uint16)(uint32)(0u), (uint16)(CYREG_PRT4_DR) },	/* TD 11 */
 308:.\Generated_Source\PSoC5/cyfitter_cfg.c **** 		{ 2432u, 0x0Du, 0x22u, (uint16)(uint32)(0u), (uint16)(CYDEV_UCFG_B0_P0_U0_BASE) },	/* TD 12 */
 309:.\Generated_Source\PSoC5/cyfitter_cfg.c **** 		{ 128u, 0x0Eu, 0x22u, (uint16)(uint32)(0u), (uint16)(CYDEV_UCFG_B0_P5_U0_BASE) },	/* TD 13 */
 310:.\Generated_Source\PSoC5/cyfitter_cfg.c **** 		{ 1152u, 0x0Fu, 0x22u, (uint16)(uint32)(0u), (uint16)(CYDEV_UCFG_B0_P5_ROUTE_BASE + 0x00000080u) 
 311:.\Generated_Source\PSoC5/cyfitter_cfg.c **** 		{ 384u, 0x10u, 0x22u, (uint16)(uint32)(0u), (uint16)(CYDEV_UCFG_B1_P2_U0_BASE) },	/* TD 15 */
 312:.\Generated_Source\PSoC5/cyfitter_cfg.c **** 		{ 384u, 0x11u, 0x22u, (uint16)(uint32)(0u), (uint16)(CYDEV_UCFG_B1_P3_U0_BASE) },	/* TD 16 */
 313:.\Generated_Source\PSoC5/cyfitter_cfg.c **** 		{ 384u, 0x12u, 0x22u, (uint16)(uint32)(0u), (uint16)(CYDEV_UCFG_B1_P4_U0_BASE) },	/* TD 17 */
 314:.\Generated_Source\PSoC5/cyfitter_cfg.c **** 		{ 384u, 0x13u, 0x22u, (uint16)(uint32)(0u), (uint16)(CYDEV_UCFG_B1_P5_U0_BASE) },	/* TD 18 */
 315:.\Generated_Source\PSoC5/cyfitter_cfg.c **** 		{ 512u, 0x14u, 0x22u, (uint16)(uint32)(0u), (uint16)(CYDEV_UCFG_DSI0_BASE) },	/* TD 19 */
 316:.\Generated_Source\PSoC5/cyfitter_cfg.c **** 		{ 128u, 0x15u, 0x22u, (uint16)(uint32)(0u), (uint16)(CYDEV_UCFG_DSI3_BASE) },	/* TD 20 */
 317:.\Generated_Source\PSoC5/cyfitter_cfg.c **** 		{ 128u, 0x16u, 0x22u, (uint16)(uint32)(0u), (uint16)(CYDEV_UCFG_DSI5_BASE) },	/* TD 21 */
 318:.\Generated_Source\PSoC5/cyfitter_cfg.c **** 		{ 128u, 0x17u, 0x22u, (uint16)(uint32)(0u), (uint16)(CYDEV_UCFG_DSI7_BASE) },	/* TD 22 */
 319:.\Generated_Source\PSoC5/cyfitter_cfg.c **** 		{ 128u, 0x18u, 0x22u, (uint16)(uint32)(0u), (uint16)(CYDEV_UCFG_DSI13_BASE) },	/* TD 23 */
 320:.\Generated_Source\PSoC5/cyfitter_cfg.c **** 		{ 32u, 0xFEu, 0x22u, (uint16)(uint32)(0u), (uint16)(CYREG_BCTL0_MDCLK_EN) },	/* TD 24 */
 321:.\Generated_Source\PSoC5/cyfitter_cfg.c **** 		{ 6u, 0xFEu, 0x23u, (uint16)(uint32)(0u), (uint16)(CYDEV_PRTDSI_PRT12_BASE) },	/* TD 25 */
 322:.\Generated_Source\PSoC5/cyfitter_cfg.c **** 		{ 8u, 0x1Bu, 0x23u, (uint16)(uint32)(0u), (uint16)(CYREG_IDMUX_IRQ_CTL0) },	/* TD 26 */
 323:.\Generated_Source\PSoC5/cyfitter_cfg.c **** 		{ 128u, 0x1Cu, 0x23u, (uint16)(uint32)(0u), (uint16)(CYDEV_UCFG_B0_P5_U1_BASE) },	/* TD 27 */
 324:.\Generated_Source\PSoC5/cyfitter_cfg.c **** 		{ 128u, 0x1Du, 0x23u, (uint16)(uint32)(0u), (uint16)(CYDEV_UCFG_DSI13_BASE + 0x00000080u) },	/* T
 325:.\Generated_Source\PSoC5/cyfitter_cfg.c **** 		{ 128u, 0x1Eu, 0x23u, (uint16)(uint32)(0u), (uint16)(CYDEV_UCFG_DSI12_BASE) },	/* TD 29 */
 326:.\Generated_Source\PSoC5/cyfitter_cfg.c **** 		{ 128u, 0x1Fu, 0x23u, (uint16)(uint32)(0u), (uint16)(CYDEV_UCFG_DSI12_BASE + 0x00000080u) },	/* T
 327:.\Generated_Source\PSoC5/cyfitter_cfg.c **** 		{ 128u, 0x20u, 0x23u, (uint16)(uint32)(0u), (uint16)(CYDEV_UCFG_DSI7_BASE + 0x00000080u) },	/* TD
 328:.\Generated_Source\PSoC5/cyfitter_cfg.c **** 		{ 128u, 0x21u, 0x23u, (uint16)(uint32)(0u), (uint16)(CYDEV_UCFG_DSI6_BASE) },	/* TD 32 */
 329:.\Generated_Source\PSoC5/cyfitter_cfg.c **** 		{ 128u, 0x22u, 0x23u, (uint16)(uint32)(0u), (uint16)(CYDEV_UCFG_DSI6_BASE + 0x00000080u) },	/* TD
 330:.\Generated_Source\PSoC5/cyfitter_cfg.c **** 		{ 128u, 0x23u, 0x23u, (uint16)(uint32)(0u), (uint16)(CYDEV_UCFG_DSI5_BASE + 0x00000080u) },	/* TD
 331:.\Generated_Source\PSoC5/cyfitter_cfg.c **** 		{ 128u, 0x24u, 0x23u, (uint16)(uint32)(0u), (uint16)(CYDEV_UCFG_DSI4_BASE) },	/* TD 35 */
 332:.\Generated_Source\PSoC5/cyfitter_cfg.c **** 		{ 128u, 0x25u, 0x23u, (uint16)(uint32)(0u), (uint16)(CYDEV_UCFG_DSI4_BASE + 0x00000080u) },	/* TD
 333:.\Generated_Source\PSoC5/cyfitter_cfg.c **** 		{ 128u, 0x26u, 0x23u, (uint16)(uint32)(0u), (uint16)(CYDEV_UCFG_B1_P5_ROUTE_BASE + 0x00000080u) }
 334:.\Generated_Source\PSoC5/cyfitter_cfg.c **** 		{ 128u, 0x27u, 0x23u, (uint16)(uint32)(0u), (uint16)(CYDEV_UCFG_B1_P2_ROUTE_BASE + 0x00000080u) }
 335:.\Generated_Source\PSoC5/cyfitter_cfg.c **** 		{ 128u, 0x28u, 0x23u, (uint16)(uint32)(0u), (uint16)(CYDEV_UCFG_B1_P4_ROUTE_BASE + 0x00000080u) }
 336:.\Generated_Source\PSoC5/cyfitter_cfg.c **** 		{ 128u, 0x29u, 0x23u, (uint16)(uint32)(0u), (uint16)(CYDEV_UCFG_B1_P3_ROUTE_BASE + 0x00000080u) }
 337:.\Generated_Source\PSoC5/cyfitter_cfg.c **** 		{ 128u, 0x2Au, 0x23u, (uint16)(uint32)(0u), (uint16)(CYDEV_UCFG_B0_P4_ROUTE_BASE + 0x00000080u) }
 338:.\Generated_Source\PSoC5/cyfitter_cfg.c **** 		{ 128u, 0x2Bu, 0x23u, (uint16)(uint32)(0u), (uint16)(CYDEV_UCFG_B0_P5_ROUTE_BASE) },	/* TD 42 */
 339:.\Generated_Source\PSoC5/cyfitter_cfg.c **** 		{ 128u, 0x2Cu, 0x23u, (uint16)(uint32)(0u), (uint16)(CYDEV_UCFG_DSI9_BASE) },	/* TD 43 */
ARM GAS  C:\Users\MONICA~1\AppData\Local\Temp\ccm12Pzq.s 			page 10


 340:.\Generated_Source\PSoC5/cyfitter_cfg.c **** 		{ 128u, 0x2Du, 0x23u, (uint16)(uint32)(0u), (uint16)(CYDEV_UCFG_DSI9_BASE + 0x00000080u) },	/* TD
 341:.\Generated_Source\PSoC5/cyfitter_cfg.c **** 		{ 128u, 0x2Eu, 0x23u, (uint16)(uint32)(0u), (uint16)(CYDEV_UCFG_DSI8_BASE) },	/* TD 45 */
 342:.\Generated_Source\PSoC5/cyfitter_cfg.c **** 		{ 128u, 0x2Fu, 0x23u, (uint16)(uint32)(0u), (uint16)(CYDEV_UCFG_DSI8_BASE + 0x00000080u) },	/* TD
 343:.\Generated_Source\PSoC5/cyfitter_cfg.c **** 		{ 128u, 0x30u, 0x23u, (uint16)(uint32)(0u), (uint16)(CYDEV_UCFG_DSI3_BASE + 0x00000080u) },	/* TD
 344:.\Generated_Source\PSoC5/cyfitter_cfg.c **** 		{ 128u, 0x31u, 0x23u, (uint16)(uint32)(0u), (uint16)(CYDEV_UCFG_DSI2_BASE) },	/* TD 48 */
 345:.\Generated_Source\PSoC5/cyfitter_cfg.c **** 		{ 128u, 0xFEu, 0x23u, (uint16)(uint32)(0u), (uint16)(CYDEV_UCFG_DSI2_BASE + 0x00000080u) },	/* TD
 346:.\Generated_Source\PSoC5/cyfitter_cfg.c **** 	};
 347:.\Generated_Source\PSoC5/cyfitter_cfg.c **** 
 348:.\Generated_Source\PSoC5/cyfitter_cfg.c **** 	/* Source addresses can be relocated, but only when in 32bit addresses.
 349:.\Generated_Source\PSoC5/cyfitter_cfg.c **** 	   Because the standard TD table only has 16bit addresses, we generate a
 350:.\Generated_Source\PSoC5/cyfitter_cfg.c **** 	   separate table for the source addresses that does use 32bit addresses. This
 351:.\Generated_Source\PSoC5/cyfitter_cfg.c **** 	   table will be re-merged with the corresponding CFG_TD_LIST table during
 352:.\Generated_Source\PSoC5/cyfitter_cfg.c **** 	   initialization. */
 353:.\Generated_Source\PSoC5/cyfitter_cfg.c **** 	static const void * const CFG_TD_ADDR0[] = {
 354:.\Generated_Source\PSoC5/cyfitter_cfg.c **** 		(const void *)(CH1_ADDR_DATA0),	/* TD 1 */
 355:.\Generated_Source\PSoC5/cyfitter_cfg.c **** 		(const void *)(CH2_ADDR_DATA0),	/* TD 2 */
 356:.\Generated_Source\PSoC5/cyfitter_cfg.c **** 		(const void *)(CH5_ADDR_DATA0),	/* TD 3 */
 357:.\Generated_Source\PSoC5/cyfitter_cfg.c **** 		(const void *)(CH6_ADDR_DATA0),	/* TD 4 */
 358:.\Generated_Source\PSoC5/cyfitter_cfg.c **** 		(const void *)(DMA_TD_START_CMD),	/* TD 5 */
 359:.\Generated_Source\PSoC5/cyfitter_cfg.c **** 		(const void *)(DMA_TD_START_CMD),	/* TD 6 */
 360:.\Generated_Source\PSoC5/cyfitter_cfg.c **** 		(const void *)(DMA_TD_START_CMD),	/* TD 7 */
 361:.\Generated_Source\PSoC5/cyfitter_cfg.c **** 		(const void *)(DMA_TD_START_CMD),	/* TD 8 */
 362:.\Generated_Source\PSoC5/cyfitter_cfg.c **** 		(const void *)(&DMA_ZERO_VAL),	/* TD 9 */
 363:.\Generated_Source\PSoC5/cyfitter_cfg.c **** 		(const void *)(&DMA_ZERO_VAL),	/* TD 10 */
 364:.\Generated_Source\PSoC5/cyfitter_cfg.c **** 		(const void *)(&DMA_ZERO_VAL),	/* TD 11 */
 365:.\Generated_Source\PSoC5/cyfitter_cfg.c **** 		(const void *)(&DMA_ZERO_VAL),	/* TD 12 */
 366:.\Generated_Source\PSoC5/cyfitter_cfg.c **** 		(const void *)(&DMA_ZERO_VAL),	/* TD 13 */
 367:.\Generated_Source\PSoC5/cyfitter_cfg.c **** 		(const void *)(&DMA_ZERO_VAL),	/* TD 14 */
 368:.\Generated_Source\PSoC5/cyfitter_cfg.c **** 		(const void *)(&DMA_ZERO_VAL),	/* TD 15 */
 369:.\Generated_Source\PSoC5/cyfitter_cfg.c **** 		(const void *)(&DMA_ZERO_VAL),	/* TD 16 */
 370:.\Generated_Source\PSoC5/cyfitter_cfg.c **** 		(const void *)(&DMA_ZERO_VAL),	/* TD 17 */
 371:.\Generated_Source\PSoC5/cyfitter_cfg.c **** 		(const void *)(&DMA_ZERO_VAL),	/* TD 18 */
 372:.\Generated_Source\PSoC5/cyfitter_cfg.c **** 		(const void *)(&DMA_ZERO_VAL),	/* TD 19 */
 373:.\Generated_Source\PSoC5/cyfitter_cfg.c **** 		(const void *)(&DMA_ZERO_VAL),	/* TD 20 */
 374:.\Generated_Source\PSoC5/cyfitter_cfg.c **** 		(const void *)(&DMA_ZERO_VAL),	/* TD 21 */
 375:.\Generated_Source\PSoC5/cyfitter_cfg.c **** 		(const void *)(&DMA_ZERO_VAL),	/* TD 22 */
 376:.\Generated_Source\PSoC5/cyfitter_cfg.c **** 		(const void *)(&DMA_ZERO_VAL),	/* TD 23 */
 377:.\Generated_Source\PSoC5/cyfitter_cfg.c **** 		(const void *)(&DMA_ZERO_VAL),	/* TD 24 */
 378:.\Generated_Source\PSoC5/cyfitter_cfg.c **** 		(const void *)(BS_IOPORT_7_VAL),	/* TD 25 */
 379:.\Generated_Source\PSoC5/cyfitter_cfg.c **** 		(const void *)(BS_IDMUX_IRQ_VAL),	/* TD 26 */
 380:.\Generated_Source\PSoC5/cyfitter_cfg.c **** 		(const void *)(BS_UDB_0_3_1_CONFIG_VAL),	/* TD 27 */
 381:.\Generated_Source\PSoC5/cyfitter_cfg.c **** 		(const void *)(BS_DSI0_0_HV_ROUTING_VAL),	/* TD 28 */
 382:.\Generated_Source\PSoC5/cyfitter_cfg.c **** 		(const void *)(BS_DSISWITCH_0_1_VAL),	/* TD 29 */
 383:.\Generated_Source\PSoC5/cyfitter_cfg.c **** 		(const void *)(BS_DSI0_1_HV_ROUTING_VAL),	/* TD 30 */
 384:.\Generated_Source\PSoC5/cyfitter_cfg.c **** 		(const void *)(BS_DSI0_2_HV_ROUTING_VAL),	/* TD 31 */
 385:.\Generated_Source\PSoC5/cyfitter_cfg.c **** 		(const void *)(BS_DSISWITCH_0_3_VAL),	/* TD 32 */
 386:.\Generated_Source\PSoC5/cyfitter_cfg.c **** 		(const void *)(BS_DSI0_3_HV_ROUTING_VAL),	/* TD 33 */
 387:.\Generated_Source\PSoC5/cyfitter_cfg.c **** 		(const void *)(BS_DSI0_4_HV_ROUTING_VAL),	/* TD 34 */
 388:.\Generated_Source\PSoC5/cyfitter_cfg.c **** 		(const void *)(BS_DSISWITCH_0_5_VAL),	/* TD 35 */
 389:.\Generated_Source\PSoC5/cyfitter_cfg.c **** 		(const void *)(BS_DSI0_5_HV_ROUTING_VAL),	/* TD 36 */
 390:.\Generated_Source\PSoC5/cyfitter_cfg.c **** 		(const void *)(BS_UDB_1_0_HV_ROUTING_VAL),	/* TD 37 */
 391:.\Generated_Source\PSoC5/cyfitter_cfg.c **** 		(const void *)(BS_UDB_2_0_HV_ROUTING_VAL),	/* TD 38 */
 392:.\Generated_Source\PSoC5/cyfitter_cfg.c **** 		(const void *)(BS_UDB_1_1_HV_ROUTING_VAL),	/* TD 39 */
 393:.\Generated_Source\PSoC5/cyfitter_cfg.c **** 		(const void *)(BS_UDB_2_1_HV_ROUTING_VAL),	/* TD 40 */
 394:.\Generated_Source\PSoC5/cyfitter_cfg.c **** 		(const void *)(BS_UDB_1_2_HV_ROUTING_VAL),	/* TD 41 */
 395:.\Generated_Source\PSoC5/cyfitter_cfg.c **** 		(const void *)(BS_UDBSWITCH_0_3_VAL),	/* TD 42 */
 396:.\Generated_Source\PSoC5/cyfitter_cfg.c **** 		(const void *)(BS_DSISWITCH_1_0_VAL),	/* TD 43 */
ARM GAS  C:\Users\MONICA~1\AppData\Local\Temp\ccm12Pzq.s 			page 11


 397:.\Generated_Source\PSoC5/cyfitter_cfg.c **** 		(const void *)(BS_DSI3_0_HV_ROUTING_VAL),	/* TD 44 */
 398:.\Generated_Source\PSoC5/cyfitter_cfg.c **** 		(const void *)(BS_DSISWITCH_1_1_VAL),	/* TD 45 */
 399:.\Generated_Source\PSoC5/cyfitter_cfg.c **** 		(const void *)(BS_DSI3_1_HV_ROUTING_VAL),	/* TD 46 */
 400:.\Generated_Source\PSoC5/cyfitter_cfg.c **** 		(const void *)(BS_DSI3_2_HV_ROUTING_VAL),	/* TD 47 */
 401:.\Generated_Source\PSoC5/cyfitter_cfg.c **** 		(const void *)(BS_DSISWITCH_1_3_VAL),	/* TD 48 */
 402:.\Generated_Source\PSoC5/cyfitter_cfg.c **** 		(const void *)(BS_DSI3_3_HV_ROUTING_VAL),	/* TD 49 */
 403:.\Generated_Source\PSoC5/cyfitter_cfg.c **** 	};
 404:.\Generated_Source\PSoC5/cyfitter_cfg.c **** 
 405:.\Generated_Source\PSoC5/cyfitter_cfg.c **** 
 406:.\Generated_Source\PSoC5/cyfitter_cfg.c **** 	uint32 i;
 407:.\Generated_Source\PSoC5/cyfitter_cfg.c **** 
 408:.\Generated_Source\PSoC5/cyfitter_cfg.c **** 	DMA_ZERO_VAL = 0u;
 175              		.loc 1 408 0
 176 0006 434B     		ldr	r3, .L15
 177 0008 0022     		movs	r2, #0
 178 000a 1A60     		str	r2, [r3]
 409:.\Generated_Source\PSoC5/cyfitter_cfg.c **** 	CY_SET_REG8((void CYXDATA *)CYREG_PHUB_CFGMEM0_CFG0, 0x10u);	/* set burstcnt */
 179              		.loc 1 409 0
 180 000c 424B     		ldr	r3, .L15+4
 181 000e 1022     		movs	r2, #16
 182 0010 1A70     		strb	r2, [r3]
 410:.\Generated_Source\PSoC5/cyfitter_cfg.c **** 	CY_SET_REG8((void CYXDATA *)CYREG_PHUB_CH0_BASIC_CFG, 0x01u);	/* enable ch0 */
 183              		.loc 1 410 0
 184 0012 424B     		ldr	r3, .L15+8
 185 0014 0122     		movs	r2, #1
 186 0016 1A70     		strb	r2, [r3]
 411:.\Generated_Source\PSoC5/cyfitter_cfg.c **** 	CY_SET_REG8((void CYXDATA *)(CYREG_PHUB_CH0_BASIC_STATUS+1u), 0x00u);	/* set first TD to 0 */
 187              		.loc 1 411 0
 188 0018 414B     		ldr	r3, .L15+12
 189 001a 0022     		movs	r2, #0
 190 001c 1A70     		strb	r2, [r3]
 412:.\Generated_Source\PSoC5/cyfitter_cfg.c **** 	CY_SET_REG16((void CYXDATA *)CYREG_PHUB_TDMEM0_ORIG_TD0, 49u*8u);	/* transfer size */
 191              		.loc 1 412 0
 192 001e 414B     		ldr	r3, .L15+16
 193 0020 4FF4C472 		mov	r2, #392
 194 0024 1A80     		strh	r2, [r3]	@ movhi
 413:.\Generated_Source\PSoC5/cyfitter_cfg.c **** 	CY_SET_REG8((void CYXDATA *)(CYREG_PHUB_TDMEM0_ORIG_TD0+2u), 0x01u);	/* set next TD to 1 */
 195              		.loc 1 413 0
 196 0026 404B     		ldr	r3, .L15+20
 197 0028 0122     		movs	r2, #1
 198 002a 1A70     		strb	r2, [r3]
 414:.\Generated_Source\PSoC5/cyfitter_cfg.c **** 	CY_SET_REG8((void CYXDATA *)(CYREG_PHUB_TDMEM0_ORIG_TD0+3u), 0x03u);	/* set TD flags */
 199              		.loc 1 414 0
 200 002c 3F4B     		ldr	r3, .L15+24
 201 002e 0322     		movs	r2, #3
 202 0030 1A70     		strb	r2, [r3]
 415:.\Generated_Source\PSoC5/cyfitter_cfg.c **** 	CY_SET_REG16((void CYXDATA *)CYREG_PHUB_TDMEM0_ORIG_TD1, (uint16)((uint32)CFG_TD_LIST0 & 0x0000FFF
 203              		.loc 1 415 0
 204 0032 3F4B     		ldr	r3, .L15+28
 205 0034 3F4A     		ldr	r2, .L15+32
 206 0036 92B2     		uxth	r2, r2
 207 0038 1A80     		strh	r2, [r3]	@ movhi
 416:.\Generated_Source\PSoC5/cyfitter_cfg.c **** 	CY_SET_REG16((void CYXDATA *)(CYREG_PHUB_TDMEM0_ORIG_TD1+2u), CYDEV_PHUB_TDMEM1_BASE);	/* set td0'
 208              		.loc 1 416 0
 209 003a 3F4B     		ldr	r3, .L15+36
 210 003c 47F60802 		movw	r2, #30728
 211 0040 1A80     		strh	r2, [r3]	@ movhi
ARM GAS  C:\Users\MONICA~1\AppData\Local\Temp\ccm12Pzq.s 			page 12


 417:.\Generated_Source\PSoC5/cyfitter_cfg.c **** 	CY_SET_REG16((void CYXDATA *)CYREG_PHUB_CFGMEM0_CFG1, (uint16)(CYDEV_FLASH_BASE >> 16));	/* set ch
 212              		.loc 1 417 0
 213 0042 3E4B     		ldr	r3, .L15+40
 214 0044 0022     		movs	r2, #0
 215 0046 1A80     		strh	r2, [r3]	@ movhi
 418:.\Generated_Source\PSoC5/cyfitter_cfg.c **** 	CY_SET_REG16((void CYXDATA *)(CYREG_PHUB_CFGMEM0_CFG1+2u), (uint16)(CYDEV_PHUB_TDMEM1_BASE >> 16))
 216              		.loc 1 418 0
 217 0048 3D4B     		ldr	r3, .L15+44
 218 004a 4FF48042 		mov	r2, #16384
 219 004e 1A80     		strh	r2, [r3]	@ movhi
 419:.\Generated_Source\PSoC5/cyfitter_cfg.c **** 	CY_SET_REG8((void CYXDATA *)(CYREG_PHUB_CH1_BASIC_STATUS+1u), 0x09u);	/* ch1 first TD: 9 */
 220              		.loc 1 419 0
 221 0050 3C4B     		ldr	r3, .L15+48
 222 0052 0922     		movs	r2, #9
 223 0054 1A70     		strb	r2, [r3]
 420:.\Generated_Source\PSoC5/cyfitter_cfg.c **** 	CY_SET_REG8((void CYXDATA *)(CYREG_PHUB_CH2_BASIC_STATUS+1u), 0x0Cu);	/* ch2 first TD: 12 */
 224              		.loc 1 420 0
 225 0056 3C4B     		ldr	r3, .L15+52
 226 0058 0C22     		movs	r2, #12
 227 005a 1A70     		strb	r2, [r3]
 421:.\Generated_Source\PSoC5/cyfitter_cfg.c **** 	CY_SET_REG8((void CYXDATA *)(CYREG_PHUB_CH5_BASIC_STATUS+1u), 0x19u);	/* ch5 first TD: 25 */
 228              		.loc 1 421 0
 229 005c 3B4B     		ldr	r3, .L15+56
 230 005e 1922     		movs	r2, #25
 231 0060 1A70     		strb	r2, [r3]
 422:.\Generated_Source\PSoC5/cyfitter_cfg.c **** 	CY_SET_REG8((void CYXDATA *)(CYREG_PHUB_CH6_BASIC_STATUS+1u), 0x1Au);	/* ch6 first TD: 26 */
 232              		.loc 1 422 0
 233 0062 3B4B     		ldr	r3, .L15+60
 234 0064 1A22     		movs	r2, #26
 235 0066 1A70     		strb	r2, [r3]
 423:.\Generated_Source\PSoC5/cyfitter_cfg.c **** 
 424:.\Generated_Source\PSoC5/cyfitter_cfg.c **** 	CY_CFG_MEMORY_BARRIER();
 236              		.loc 1 424 0
 237 0068 BFF35F8F 		dmb	sy
 425:.\Generated_Source\PSoC5/cyfitter_cfg.c **** 	CY_SET_REG8((void CYXDATA *)CYREG_PHUB_CH0_ACTION, 0x01u); /* cpu_req */
 238              		.loc 1 425 0
 239 006c 394B     		ldr	r3, .L15+64
 240 006e 0122     		movs	r2, #1
 241 0070 1A70     		strb	r2, [r3]
 426:.\Generated_Source\PSoC5/cyfitter_cfg.c **** 	CY_CFG_MEMORY_BARRIER();
 242              		.loc 1 426 0
 243 0072 BFF35F8F 		dmb	sy
 427:.\Generated_Source\PSoC5/cyfitter_cfg.c **** 
 428:.\Generated_Source\PSoC5/cyfitter_cfg.c **** 	/* Wait for TDs to be copied into TDMEM */
 429:.\Generated_Source\PSoC5/cyfitter_cfg.c **** 	while (CY_GET_REG16((void CYXDATA *)CYREG_PHUB_TDMEM0_ORIG_TD0) != 0u) { }
 244              		.loc 1 429 0
 245 0076 00BF     		nop
 246              	.L7:
 247              		.loc 1 429 0 is_stmt 0 discriminator 1
 248 0078 2A4B     		ldr	r3, .L15+16
 249 007a 1B88     		ldrh	r3, [r3]	@ movhi
 250 007c 9BB2     		uxth	r3, r3
 251 007e 002B     		cmp	r3, #0
 252 0080 FAD1     		bne	.L7
 430:.\Generated_Source\PSoC5/cyfitter_cfg.c **** 
 431:.\Generated_Source\PSoC5/cyfitter_cfg.c **** 	/* Recombine TD source table (CFG_TD_ADDR0) with full TD table (CFG_TD_LIST0) */
 432:.\Generated_Source\PSoC5/cyfitter_cfg.c **** 	for (i = 0u; i < 49u; i++)
ARM GAS  C:\Users\MONICA~1\AppData\Local\Temp\ccm12Pzq.s 			page 13


 253              		.loc 1 432 0 is_stmt 1
 254 0082 0023     		movs	r3, #0
 255 0084 7B60     		str	r3, [r7, #4]
 256 0086 0DE0     		b	.L8
 257              	.L9:
 433:.\Generated_Source\PSoC5/cyfitter_cfg.c **** 	{
 434:.\Generated_Source\PSoC5/cyfitter_cfg.c **** 		CY_SET_REG16((void CYXDATA *)(CYREG_PHUB_TDMEM1_ORIG_TD1 + (sizeof(struct td_t)*i)), (uint16)(uin
 258              		.loc 1 434 0 discriminator 3
 259 0088 7B68     		ldr	r3, [r7, #4]
 260 008a DA00     		lsls	r2, r3, #3
 261 008c 324B     		ldr	r3, .L15+68
 262 008e 1344     		add	r3, r3, r2
 263 0090 1946     		mov	r1, r3
 264 0092 324A     		ldr	r2, .L15+72
 265 0094 7B68     		ldr	r3, [r7, #4]
 266 0096 52F82330 		ldr	r3, [r2, r3, lsl #2]
 267 009a 9BB2     		uxth	r3, r3
 268 009c 0B80     		strh	r3, [r1]	@ movhi
 432:.\Generated_Source\PSoC5/cyfitter_cfg.c **** 	{
 269              		.loc 1 432 0 discriminator 3
 270 009e 7B68     		ldr	r3, [r7, #4]
 271 00a0 0133     		adds	r3, r3, #1
 272 00a2 7B60     		str	r3, [r7, #4]
 273              	.L8:
 432:.\Generated_Source\PSoC5/cyfitter_cfg.c **** 	{
 274              		.loc 1 432 0 is_stmt 0 discriminator 1
 275 00a4 7B68     		ldr	r3, [r7, #4]
 276 00a6 302B     		cmp	r3, #48
 277 00a8 EED9     		bls	.L9
 435:.\Generated_Source\PSoC5/cyfitter_cfg.c **** 	}
 436:.\Generated_Source\PSoC5/cyfitter_cfg.c **** 
 437:.\Generated_Source\PSoC5/cyfitter_cfg.c **** 	CY_CFG_MEMORY_BARRIER();
 278              		.loc 1 437 0 is_stmt 1
 279 00aa BFF35F8F 		dmb	sy
 438:.\Generated_Source\PSoC5/cyfitter_cfg.c **** 	CY_SET_REG8((void CYXDATA *)CYREG_PHUB_CH0_ACTION, 0x01u); /* cpu_req */
 280              		.loc 1 438 0
 281 00ae 294B     		ldr	r3, .L15+64
 282 00b0 0122     		movs	r2, #1
 283 00b2 1A70     		strb	r2, [r3]
 439:.\Generated_Source\PSoC5/cyfitter_cfg.c **** 	CY_CFG_MEMORY_BARRIER();
 284              		.loc 1 439 0
 285 00b4 BFF35F8F 		dmb	sy
 440:.\Generated_Source\PSoC5/cyfitter_cfg.c **** 
 441:.\Generated_Source\PSoC5/cyfitter_cfg.c **** 	/* Wait for all DMA transfers to complete */
 442:.\Generated_Source\PSoC5/cyfitter_cfg.c **** 	while(0u != (CY_GET_REG8((void CYXDATA *)CYREG_PHUB_CH0_BASIC_STATUS) & 0x01u)){}
 286              		.loc 1 442 0
 287 00b8 00BF     		nop
 288              	.L10:
 289              		.loc 1 442 0 is_stmt 0 discriminator 1
 290 00ba 294B     		ldr	r3, .L15+76
 291 00bc 1B78     		ldrb	r3, [r3]
 292 00be DBB2     		uxtb	r3, r3
 293 00c0 03F00103 		and	r3, r3, #1
 294 00c4 002B     		cmp	r3, #0
 295 00c6 F8D1     		bne	.L10
 443:.\Generated_Source\PSoC5/cyfitter_cfg.c **** 	while(0u != (CY_GET_REG8((void CYXDATA *)CYREG_PHUB_CH1_BASIC_STATUS) & 0x01u)){}
 296              		.loc 1 443 0 is_stmt 1
ARM GAS  C:\Users\MONICA~1\AppData\Local\Temp\ccm12Pzq.s 			page 14


 297 00c8 00BF     		nop
 298              	.L11:
 299              		.loc 1 443 0 is_stmt 0 discriminator 1
 300 00ca 264B     		ldr	r3, .L15+80
 301 00cc 1B78     		ldrb	r3, [r3]
 302 00ce DBB2     		uxtb	r3, r3
 303 00d0 03F00103 		and	r3, r3, #1
 304 00d4 002B     		cmp	r3, #0
 305 00d6 F8D1     		bne	.L11
 444:.\Generated_Source\PSoC5/cyfitter_cfg.c **** 	while(0u != (CY_GET_REG8((void CYXDATA *)CYREG_PHUB_CH2_BASIC_STATUS) & 0x01u)){}
 306              		.loc 1 444 0 is_stmt 1
 307 00d8 00BF     		nop
 308              	.L12:
 309              		.loc 1 444 0 is_stmt 0 discriminator 1
 310 00da 234B     		ldr	r3, .L15+84
 311 00dc 1B78     		ldrb	r3, [r3]
 312 00de DBB2     		uxtb	r3, r3
 313 00e0 03F00103 		and	r3, r3, #1
 314 00e4 002B     		cmp	r3, #0
 315 00e6 F8D1     		bne	.L12
 445:.\Generated_Source\PSoC5/cyfitter_cfg.c **** 	while(0u != (CY_GET_REG8((void CYXDATA *)CYREG_PHUB_CH5_BASIC_STATUS) & 0x01u)){}
 316              		.loc 1 445 0 is_stmt 1
 317 00e8 00BF     		nop
 318              	.L13:
 319              		.loc 1 445 0 is_stmt 0 discriminator 1
 320 00ea 204B     		ldr	r3, .L15+88
 321 00ec 1B78     		ldrb	r3, [r3]
 322 00ee DBB2     		uxtb	r3, r3
 323 00f0 03F00103 		and	r3, r3, #1
 324 00f4 002B     		cmp	r3, #0
 325 00f6 F8D1     		bne	.L13
 446:.\Generated_Source\PSoC5/cyfitter_cfg.c **** 	while(0u != (CY_GET_REG8((void CYXDATA *)CYREG_PHUB_CH6_BASIC_STATUS) & 0x01u)){}
 326              		.loc 1 446 0 is_stmt 1
 327 00f8 00BF     		nop
 328              	.L14:
 329              		.loc 1 446 0 is_stmt 0 discriminator 1
 330 00fa 1D4B     		ldr	r3, .L15+92
 331 00fc 1B78     		ldrb	r3, [r3]
 332 00fe DBB2     		uxtb	r3, r3
 333 0100 03F00103 		and	r3, r3, #1
 334 0104 002B     		cmp	r3, #0
 335 0106 F8D1     		bne	.L14
 447:.\Generated_Source\PSoC5/cyfitter_cfg.c **** 
 448:.\Generated_Source\PSoC5/cyfitter_cfg.c **** 
 449:.\Generated_Source\PSoC5/cyfitter_cfg.c **** }
 336              		.loc 1 449 0 is_stmt 1
 337 0108 0C37     		adds	r7, r7, #12
 338              		.cfi_def_cfa_offset 4
 339 010a BD46     		mov	sp, r7
 340              		.cfi_def_cfa_register 13
 341              		@ sp needed
 342 010c 5DF8047B 		ldr	r7, [sp], #4
 343              		.cfi_restore 7
 344              		.cfi_def_cfa_offset 0
 345 0110 7047     		bx	lr
 346              	.L16:
 347 0112 00BF     		.align	2
ARM GAS  C:\Users\MONICA~1\AppData\Local\Temp\ccm12Pzq.s 			page 15


 348              	.L15:
 349 0114 00000000 		.word	DMA_ZERO_VAL.4858
 350 0118 00760040 		.word	1073772032
 351 011c 10700040 		.word	1073770512
 352 0120 19700040 		.word	1073770521
 353 0124 00780040 		.word	1073772544
 354 0128 02780040 		.word	1073772546
 355 012c 03780040 		.word	1073772547
 356 0130 04780040 		.word	1073772548
 357 0134 00000000 		.word	CFG_TD_LIST0.4859
 358 0138 06780040 		.word	1073772550
 359 013c 04760040 		.word	1073772036
 360 0140 06760040 		.word	1073772038
 361 0144 29700040 		.word	1073770537
 362 0148 39700040 		.word	1073770553
 363 014c 69700040 		.word	1073770601
 364 0150 79700040 		.word	1073770617
 365 0154 14700040 		.word	1073770516
 366 0158 0C780040 		.word	1073772556
 367 015c 00000000 		.word	CFG_TD_ADDR0.4860
 368 0160 18700040 		.word	1073770520
 369 0164 28700040 		.word	1073770536
 370 0168 38700040 		.word	1073770552
 371 016c 68700040 		.word	1073770600
 372 0170 78700040 		.word	1073770616
 373              		.cfi_endproc
 374              	.LFE4:
 375              		.size	cfg_dma_init, .-cfg_dma_init
 376              		.section	.text.ClockSetup,"ax",%progbits
 377              		.align	2
 378              		.thumb
 379              		.thumb_func
 380              		.type	ClockSetup, %function
 381              	ClockSetup:
 382              	.LFB5:
 450:.\Generated_Source\PSoC5/cyfitter_cfg.c **** /*******************************************************************************
 451:.\Generated_Source\PSoC5/cyfitter_cfg.c **** * Function Name: ClockSetup
 452:.\Generated_Source\PSoC5/cyfitter_cfg.c **** ********************************************************************************
 453:.\Generated_Source\PSoC5/cyfitter_cfg.c **** *
 454:.\Generated_Source\PSoC5/cyfitter_cfg.c **** * Summary:
 455:.\Generated_Source\PSoC5/cyfitter_cfg.c **** *  Performs the initialization of all of the clocks in the device based on the
 456:.\Generated_Source\PSoC5/cyfitter_cfg.c **** *  settings in the Clock tab of the DWR.  This includes enabling the requested
 457:.\Generated_Source\PSoC5/cyfitter_cfg.c **** *  clocks and setting the necessary dividers to produce the desired frequency. 
 458:.\Generated_Source\PSoC5/cyfitter_cfg.c **** *
 459:.\Generated_Source\PSoC5/cyfitter_cfg.c **** * Parameters:
 460:.\Generated_Source\PSoC5/cyfitter_cfg.c **** *  void
 461:.\Generated_Source\PSoC5/cyfitter_cfg.c **** *
 462:.\Generated_Source\PSoC5/cyfitter_cfg.c **** * Return:
 463:.\Generated_Source\PSoC5/cyfitter_cfg.c **** *  void
 464:.\Generated_Source\PSoC5/cyfitter_cfg.c **** *
 465:.\Generated_Source\PSoC5/cyfitter_cfg.c **** *******************************************************************************/
 466:.\Generated_Source\PSoC5/cyfitter_cfg.c **** static void ClockSetup(void);
 467:.\Generated_Source\PSoC5/cyfitter_cfg.c **** static void ClockSetup(void)
 468:.\Generated_Source\PSoC5/cyfitter_cfg.c **** {
 383              		.loc 1 468 0
 384              		.cfi_startproc
 385              		@ args = 0, pretend = 0, frame = 8
ARM GAS  C:\Users\MONICA~1\AppData\Local\Temp\ccm12Pzq.s 			page 16


 386              		@ frame_needed = 1, uses_anonymous_args = 0
 387 0000 80B5     		push	{r7, lr}
 388              		.cfi_def_cfa_offset 8
 389              		.cfi_offset 7, -8
 390              		.cfi_offset 14, -4
 391 0002 82B0     		sub	sp, sp, #8
 392              		.cfi_def_cfa_offset 16
 393 0004 00AF     		add	r7, sp, #0
 394              		.cfi_def_cfa_register 7
 469:.\Generated_Source\PSoC5/cyfitter_cfg.c **** 	uint32 timeout;
 470:.\Generated_Source\PSoC5/cyfitter_cfg.c **** 	uint8 pllLock;
 471:.\Generated_Source\PSoC5/cyfitter_cfg.c **** 
 472:.\Generated_Source\PSoC5/cyfitter_cfg.c **** 
 473:.\Generated_Source\PSoC5/cyfitter_cfg.c **** 	/* Configure Digital Clocks based on settings from Clock DWR */
 474:.\Generated_Source\PSoC5/cyfitter_cfg.c **** 	CY_SET_XTND_REG16((void CYFAR *)(CYREG_CLKDIST_DCFG0_CFG0), 0x0000u);
 395              		.loc 1 474 0
 396 0006 3B4B     		ldr	r3, .L22
 397 0008 0022     		movs	r2, #0
 398 000a 1A80     		strh	r2, [r3]	@ movhi
 475:.\Generated_Source\PSoC5/cyfitter_cfg.c **** 	CY_SET_XTND_REG8((void CYFAR *)(CYREG_CLKDIST_DCFG0_CFG0 + 0x2u), 0x50u);
 399              		.loc 1 475 0
 400 000c 3A4B     		ldr	r3, .L22+4
 401 000e 5022     		movs	r2, #80
 402 0010 1A70     		strb	r2, [r3]
 476:.\Generated_Source\PSoC5/cyfitter_cfg.c **** 
 477:.\Generated_Source\PSoC5/cyfitter_cfg.c **** 	/* Configure Analog Clocks based on settings from Clock DWR */
 478:.\Generated_Source\PSoC5/cyfitter_cfg.c **** 	CYCONFIGCPY((void CYFAR *)(CYREG_CLKDIST_ACFG0_CFG0), (const void CYFAR *)(BS_CYDEV_CLKDIST_ACFG0_
 403              		.loc 1 478 0
 404 0012 3A48     		ldr	r0, .L22+8
 405 0014 3A49     		ldr	r1, .L22+12
 406 0016 0422     		movs	r2, #4
 407 0018 FFF7FEFF 		bl	CYCONFIGCPY
 479:.\Generated_Source\PSoC5/cyfitter_cfg.c **** 
 480:.\Generated_Source\PSoC5/cyfitter_cfg.c **** 	/* Configure ILO based on settings from Clock DWR */
 481:.\Generated_Source\PSoC5/cyfitter_cfg.c **** 	CY_SET_XTND_REG8((void CYFAR *)(CYREG_SLOWCLK_ILO_CR0), 0x02u);
 408              		.loc 1 481 0
 409 001c 394B     		ldr	r3, .L22+16
 410 001e 0222     		movs	r2, #2
 411 0020 1A70     		strb	r2, [r3]
 482:.\Generated_Source\PSoC5/cyfitter_cfg.c **** 	CY_SET_XTND_REG8((void CYFAR *)(CYREG_CLKDIST_CR), 0x08u);
 412              		.loc 1 482 0
 413 0022 4FF04023 		mov	r3, #1073758208
 414 0026 0822     		movs	r2, #8
 415 0028 1A70     		strb	r2, [r3]
 483:.\Generated_Source\PSoC5/cyfitter_cfg.c **** 
 484:.\Generated_Source\PSoC5/cyfitter_cfg.c **** 	/* Configure IMO based on settings from Clock DWR */
 485:.\Generated_Source\PSoC5/cyfitter_cfg.c **** 	CY_SET_XTND_REG8((void CYFAR *)(CYREG_FASTCLK_IMO_CR), 0x03u);
 416              		.loc 1 485 0
 417 002a 374B     		ldr	r3, .L22+20
 418 002c 0322     		movs	r2, #3
 419 002e 1A70     		strb	r2, [r3]
 486:.\Generated_Source\PSoC5/cyfitter_cfg.c **** 	CY_SET_XTND_REG8((void CYFAR *)(CYREG_IMO_TR1), (CY_GET_XTND_REG8((void CYFAR *)CYREG_FLSHID_CUST_
 420              		.loc 1 486 0
 421 0030 364B     		ldr	r3, .L22+24
 422 0032 374A     		ldr	r2, .L22+28
 423 0034 1278     		ldrb	r2, [r2]
 424 0036 D2B2     		uxtb	r2, r2
ARM GAS  C:\Users\MONICA~1\AppData\Local\Temp\ccm12Pzq.s 			page 17


 425 0038 1A70     		strb	r2, [r3]
 487:.\Generated_Source\PSoC5/cyfitter_cfg.c **** 
 488:.\Generated_Source\PSoC5/cyfitter_cfg.c **** 	/* Configure PLL based on settings from Clock DWR */
 489:.\Generated_Source\PSoC5/cyfitter_cfg.c **** 	CY_SET_XTND_REG16((void CYFAR *)(CYREG_FASTCLK_PLL_P), 0x0008u);
 426              		.loc 1 489 0
 427 003a 364B     		ldr	r3, .L22+32
 428 003c 0822     		movs	r2, #8
 429 003e 1A80     		strh	r2, [r3]	@ movhi
 490:.\Generated_Source\PSoC5/cyfitter_cfg.c **** 	CY_SET_XTND_REG16((void CYFAR *)(CYREG_FASTCLK_PLL_CFG0), 0x1251u);
 430              		.loc 1 490 0
 431 0040 354B     		ldr	r3, .L22+36
 432 0042 41F25122 		movw	r2, #4689
 433 0046 1A80     		strh	r2, [r3]	@ movhi
 491:.\Generated_Source\PSoC5/cyfitter_cfg.c **** 	/* Wait up to 250us for the PLL to lock */
 492:.\Generated_Source\PSoC5/cyfitter_cfg.c **** 	pllLock = 0u;
 434              		.loc 1 492 0
 435 0048 0023     		movs	r3, #0
 436 004a FB70     		strb	r3, [r7, #3]
 493:.\Generated_Source\PSoC5/cyfitter_cfg.c **** 	for (timeout = 250u / 10u; (timeout > 0u) && (pllLock != 0x03u); timeout--)
 437              		.loc 1 493 0
 438 004c 1923     		movs	r3, #25
 439 004e 7B60     		str	r3, [r7, #4]
 440 0050 13E0     		b	.L18
 441              	.L20:
 494:.\Generated_Source\PSoC5/cyfitter_cfg.c **** 	{ 
 495:.\Generated_Source\PSoC5/cyfitter_cfg.c **** 		pllLock = 0x03u & ((uint8)((uint8)pllLock << 1) | ((CY_GET_XTND_REG8((void CYFAR *)CYREG_FASTCLK_
 442              		.loc 1 495 0 discriminator 4
 443 0052 FB78     		ldrb	r3, [r7, #3]
 444 0054 5B00     		lsls	r3, r3, #1
 445 0056 DAB2     		uxtb	r2, r3
 446 0058 304B     		ldr	r3, .L22+40
 447 005a 1B78     		ldrb	r3, [r3]
 448 005c DBB2     		uxtb	r3, r3
 449 005e 03F00103 		and	r3, r3, #1
 450 0062 DBB2     		uxtb	r3, r3
 451 0064 1343     		orrs	r3, r3, r2
 452 0066 DBB2     		uxtb	r3, r3
 453 0068 03F00303 		and	r3, r3, #3
 454 006c FB70     		strb	r3, [r7, #3]
 496:.\Generated_Source\PSoC5/cyfitter_cfg.c **** 		CyDelayCycles(10u * 12u); /* Delay 10us based on 12MHz clock */
 455              		.loc 1 496 0 discriminator 4
 456 006e 7820     		movs	r0, #120
 457 0070 FFF7FEFF 		bl	CyDelayCycles
 493:.\Generated_Source\PSoC5/cyfitter_cfg.c **** 	for (timeout = 250u / 10u; (timeout > 0u) && (pllLock != 0x03u); timeout--)
 458              		.loc 1 493 0 discriminator 4
 459 0074 7B68     		ldr	r3, [r7, #4]
 460 0076 013B     		subs	r3, r3, #1
 461 0078 7B60     		str	r3, [r7, #4]
 462              	.L18:
 493:.\Generated_Source\PSoC5/cyfitter_cfg.c **** 	for (timeout = 250u / 10u; (timeout > 0u) && (pllLock != 0x03u); timeout--)
 463              		.loc 1 493 0 is_stmt 0 discriminator 1
 464 007a 7B68     		ldr	r3, [r7, #4]
 465 007c 002B     		cmp	r3, #0
 466 007e 02D0     		beq	.L19
 493:.\Generated_Source\PSoC5/cyfitter_cfg.c **** 	for (timeout = 250u / 10u; (timeout > 0u) && (pllLock != 0x03u); timeout--)
 467              		.loc 1 493 0 discriminator 3
 468 0080 FB78     		ldrb	r3, [r7, #3]	@ zero_extendqisi2
ARM GAS  C:\Users\MONICA~1\AppData\Local\Temp\ccm12Pzq.s 			page 18


 469 0082 032B     		cmp	r3, #3
 470 0084 E5D1     		bne	.L20
 471              	.L19:
 497:.\Generated_Source\PSoC5/cyfitter_cfg.c **** 	}
 498:.\Generated_Source\PSoC5/cyfitter_cfg.c **** 	/* If we ran out of time the PLL didn't lock so go to the error function */
 499:.\Generated_Source\PSoC5/cyfitter_cfg.c **** 	if (timeout == 0u)
 472              		.loc 1 499 0 is_stmt 1
 473 0086 7B68     		ldr	r3, [r7, #4]
 474 0088 002B     		cmp	r3, #0
 475 008a 02D1     		bne	.L21
 500:.\Generated_Source\PSoC5/cyfitter_cfg.c **** 	{
 501:.\Generated_Source\PSoC5/cyfitter_cfg.c **** 		CyClockStartupError(CYCLOCKSTART_PLL_ERROR);
 476              		.loc 1 501 0
 477 008c 0320     		movs	r0, #3
 478 008e FFF7FEFF 		bl	CyClockStartupError
 479              	.L21:
 502:.\Generated_Source\PSoC5/cyfitter_cfg.c **** 	}
 503:.\Generated_Source\PSoC5/cyfitter_cfg.c **** 
 504:.\Generated_Source\PSoC5/cyfitter_cfg.c **** 	/* Configure Bus/Master Clock based on settings from Clock DWR */
 505:.\Generated_Source\PSoC5/cyfitter_cfg.c **** 	CY_SET_XTND_REG16((void CYFAR *)(CYREG_CLKDIST_MSTR0), 0x0100u);
 480              		.loc 1 505 0
 481 0092 234B     		ldr	r3, .L22+44
 482 0094 4FF48072 		mov	r2, #256
 483 0098 1A80     		strh	r2, [r3]	@ movhi
 506:.\Generated_Source\PSoC5/cyfitter_cfg.c **** 	CY_SET_XTND_REG8((void CYFAR *)(CYREG_CLKDIST_MSTR0), 0x07u);
 484              		.loc 1 506 0
 485 009a 214B     		ldr	r3, .L22+44
 486 009c 0722     		movs	r2, #7
 487 009e 1A70     		strb	r2, [r3]
 507:.\Generated_Source\PSoC5/cyfitter_cfg.c **** 	CY_SET_XTND_REG8((void CYFAR *)(CYREG_CLKDIST_BCFG0), 0x00u);
 488              		.loc 1 507 0
 489 00a0 204B     		ldr	r3, .L22+48
 490 00a2 0022     		movs	r2, #0
 491 00a4 1A70     		strb	r2, [r3]
 508:.\Generated_Source\PSoC5/cyfitter_cfg.c **** 	CY_SET_XTND_REG8((void CYFAR *)(CYREG_CLKDIST_BCFG2), 0x48u);
 492              		.loc 1 508 0
 493 00a6 204B     		ldr	r3, .L22+52
 494 00a8 4822     		movs	r2, #72
 495 00aa 1A70     		strb	r2, [r3]
 509:.\Generated_Source\PSoC5/cyfitter_cfg.c **** 	CY_SET_XTND_REG8((void CYFAR *)(CYREG_CLKDIST_MSTR0), 0x00u);
 496              		.loc 1 509 0
 497 00ac 1C4B     		ldr	r3, .L22+44
 498 00ae 0022     		movs	r2, #0
 499 00b0 1A70     		strb	r2, [r3]
 510:.\Generated_Source\PSoC5/cyfitter_cfg.c **** 	CY_SET_XTND_REG8((void CYFAR *)(CYREG_CLKDIST_LD), 0x02u);
 500              		.loc 1 510 0
 501 00b2 1E4B     		ldr	r3, .L22+56
 502 00b4 0222     		movs	r2, #2
 503 00b6 1A70     		strb	r2, [r3]
 511:.\Generated_Source\PSoC5/cyfitter_cfg.c **** 	CY_SET_XTND_REG8((void CYFAR *)(CYREG_CLKDIST_DLY1), 0x04u);
 504              		.loc 1 511 0
 505 00b8 1D4B     		ldr	r3, .L22+60
 506 00ba 0422     		movs	r2, #4
 507 00bc 1A70     		strb	r2, [r3]
 512:.\Generated_Source\PSoC5/cyfitter_cfg.c **** 
 513:.\Generated_Source\PSoC5/cyfitter_cfg.c **** 	CY_SET_XTND_REG8((void CYFAR *)(CYREG_PM_ACT_CFG2), ((CY_GET_XTND_REG8((void CYFAR *)CYREG_PM_ACT_
 508              		.loc 1 513 0
ARM GAS  C:\Users\MONICA~1\AppData\Local\Temp\ccm12Pzq.s 			page 19


 509 00be 1D4A     		ldr	r2, .L22+64
 510 00c0 1C4B     		ldr	r3, .L22+64
 511 00c2 1B78     		ldrb	r3, [r3]
 512 00c4 DBB2     		uxtb	r3, r3
 513 00c6 43F00103 		orr	r3, r3, #1
 514 00ca DBB2     		uxtb	r3, r3
 515 00cc 1370     		strb	r3, [r2]
 514:.\Generated_Source\PSoC5/cyfitter_cfg.c **** 	CY_SET_XTND_REG8((void CYFAR *)(CYREG_PM_ACT_CFG1), ((CY_GET_XTND_REG8((void CYFAR *)CYREG_PM_ACT_
 516              		.loc 1 514 0
 517 00ce 1A4A     		ldr	r2, .L22+68
 518 00d0 194B     		ldr	r3, .L22+68
 519 00d2 1B78     		ldrb	r3, [r3]
 520 00d4 DBB2     		uxtb	r3, r3
 521 00d6 43F00103 		orr	r3, r3, #1
 522 00da DBB2     		uxtb	r3, r3
 523 00dc 1370     		strb	r3, [r2]
 515:.\Generated_Source\PSoC5/cyfitter_cfg.c **** 	CY_SET_XTND_REG8((void CYFAR *)(CYREG_PM_ACT_CFG0), ((CY_GET_XTND_REG8((void CYFAR *)CYREG_PM_ACT_
 524              		.loc 1 515 0
 525 00de 174A     		ldr	r2, .L22+72
 526 00e0 164B     		ldr	r3, .L22+72
 527 00e2 1B78     		ldrb	r3, [r3]
 528 00e4 DBB2     		uxtb	r3, r3
 529 00e6 63F07F03 		orn	r3, r3, #127
 530 00ea DBB2     		uxtb	r3, r3
 531 00ec 1370     		strb	r3, [r2]
 516:.\Generated_Source\PSoC5/cyfitter_cfg.c **** }
 532              		.loc 1 516 0
 533 00ee 0837     		adds	r7, r7, #8
 534              		.cfi_def_cfa_offset 8
 535 00f0 BD46     		mov	sp, r7
 536              		.cfi_def_cfa_register 13
 537              		@ sp needed
 538 00f2 80BD     		pop	{r7, pc}
 539              	.L23:
 540              		.align	2
 541              	.L22:
 542 00f4 80400040 		.word	1073758336
 543 00f8 82400040 		.word	1073758338
 544 00fc 00410040 		.word	1073758464
 545 0100 B80B0048 		.word	1207962552
 546 0104 00430040 		.word	1073758976
 547 0108 00420040 		.word	1073758720
 548 010c A1460040 		.word	1073759905
 549 0110 08010049 		.word	1224737032
 550 0114 22420040 		.word	1073758754
 551 0118 20420040 		.word	1073758752
 552 011c 25420040 		.word	1073758757
 553 0120 04400040 		.word	1073758212
 554 0124 06400040 		.word	1073758214
 555 0128 08400040 		.word	1073758216
 556 012c 01400040 		.word	1073758209
 557 0130 0B400040 		.word	1073758219
 558 0134 A2430040 		.word	1073759138
 559 0138 A1430040 		.word	1073759137
 560 013c A0430040 		.word	1073759136
 561              		.cfi_endproc
 562              	.LFE5:
ARM GAS  C:\Users\MONICA~1\AppData\Local\Temp\ccm12Pzq.s 			page 20


 563              		.size	ClockSetup, .-ClockSetup
 564              		.section	.text.AnalogSetDefault,"ax",%progbits
 565              		.align	2
 566              		.thumb
 567              		.thumb_func
 568              		.type	AnalogSetDefault, %function
 569              	AnalogSetDefault:
 570              	.LFB6:
 517:.\Generated_Source\PSoC5/cyfitter_cfg.c **** 
 518:.\Generated_Source\PSoC5/cyfitter_cfg.c **** 
 519:.\Generated_Source\PSoC5/cyfitter_cfg.c **** /* Analog API Functions */
 520:.\Generated_Source\PSoC5/cyfitter_cfg.c **** 
 521:.\Generated_Source\PSoC5/cyfitter_cfg.c **** 
 522:.\Generated_Source\PSoC5/cyfitter_cfg.c **** /*******************************************************************************
 523:.\Generated_Source\PSoC5/cyfitter_cfg.c **** * Function Name: AnalogSetDefault
 524:.\Generated_Source\PSoC5/cyfitter_cfg.c **** ********************************************************************************
 525:.\Generated_Source\PSoC5/cyfitter_cfg.c **** *
 526:.\Generated_Source\PSoC5/cyfitter_cfg.c **** * Summary:
 527:.\Generated_Source\PSoC5/cyfitter_cfg.c **** *  Sets up the analog portions of the chip to default values based on chip
 528:.\Generated_Source\PSoC5/cyfitter_cfg.c **** *  configuration options from the project.
 529:.\Generated_Source\PSoC5/cyfitter_cfg.c **** *
 530:.\Generated_Source\PSoC5/cyfitter_cfg.c **** * Parameters:
 531:.\Generated_Source\PSoC5/cyfitter_cfg.c **** *  void
 532:.\Generated_Source\PSoC5/cyfitter_cfg.c **** *
 533:.\Generated_Source\PSoC5/cyfitter_cfg.c **** * Return:
 534:.\Generated_Source\PSoC5/cyfitter_cfg.c **** *  void
 535:.\Generated_Source\PSoC5/cyfitter_cfg.c **** *
 536:.\Generated_Source\PSoC5/cyfitter_cfg.c **** *******************************************************************************/
 537:.\Generated_Source\PSoC5/cyfitter_cfg.c **** static void AnalogSetDefault(void);
 538:.\Generated_Source\PSoC5/cyfitter_cfg.c **** static void AnalogSetDefault(void)
 539:.\Generated_Source\PSoC5/cyfitter_cfg.c **** {
 571              		.loc 1 539 0
 572              		.cfi_startproc
 573              		@ args = 0, pretend = 0, frame = 8
 574              		@ frame_needed = 1, uses_anonymous_args = 0
 575              		@ link register save eliminated.
 576 0000 80B4     		push	{r7}
 577              		.cfi_def_cfa_offset 4
 578              		.cfi_offset 7, -4
 579 0002 83B0     		sub	sp, sp, #12
 580              		.cfi_def_cfa_offset 16
 581 0004 00AF     		add	r7, sp, #0
 582              		.cfi_def_cfa_register 7
 540:.\Generated_Source\PSoC5/cyfitter_cfg.c **** 	uint8 bg_xover_inl_trim = CY_GET_XTND_REG8((void CYFAR *)(CYREG_FLSHID_MFG_CFG_BG_XOVER_INL_TRIM +
 583              		.loc 1 540 0
 584 0006 0F4B     		ldr	r3, .L25
 585 0008 1B78     		ldrb	r3, [r3]
 586 000a FB71     		strb	r3, [r7, #7]
 541:.\Generated_Source\PSoC5/cyfitter_cfg.c **** 	CY_SET_XTND_REG8((void CYFAR *)(CYREG_BG_DFT0), (bg_xover_inl_trim & 0x07u));
 587              		.loc 1 541 0
 588 000c 0E4A     		ldr	r2, .L25+4
 589 000e FB79     		ldrb	r3, [r7, #7]
 590 0010 03F00703 		and	r3, r3, #7
 591 0014 DBB2     		uxtb	r3, r3
 592 0016 1370     		strb	r3, [r2]
 542:.\Generated_Source\PSoC5/cyfitter_cfg.c **** 	CY_SET_XTND_REG8((void CYFAR *)(CYREG_BG_DFT1), ((bg_xover_inl_trim >> 4) & 0x0Fu));
 593              		.loc 1 542 0
ARM GAS  C:\Users\MONICA~1\AppData\Local\Temp\ccm12Pzq.s 			page 21


 594 0018 0C4A     		ldr	r2, .L25+8
 595 001a FB79     		ldrb	r3, [r7, #7]	@ zero_extendqisi2
 596 001c 1B09     		lsrs	r3, r3, #4
 597 001e DBB2     		uxtb	r3, r3
 598 0020 1370     		strb	r3, [r2]
 543:.\Generated_Source\PSoC5/cyfitter_cfg.c **** 	CY_SET_XTND_REG8((void CYFAR *)CYREG_DAC2_SW3, 0x80u);
 599              		.loc 1 543 0
 600 0022 0B4B     		ldr	r3, .L25+12
 601 0024 8022     		movs	r2, #128
 602 0026 1A70     		strb	r2, [r3]
 544:.\Generated_Source\PSoC5/cyfitter_cfg.c **** 	CY_SET_XTND_REG8((void CYFAR *)CYREG_DSM0_SW0, 0x50u);
 603              		.loc 1 544 0
 604 0028 0A4B     		ldr	r3, .L25+16
 605 002a 5022     		movs	r2, #80
 606 002c 1A70     		strb	r2, [r3]
 545:.\Generated_Source\PSoC5/cyfitter_cfg.c **** 	CY_SET_XTND_REG8((void CYFAR *)CYREG_BUS_SW0, 0x10u);
 607              		.loc 1 545 0
 608 002e 0A4B     		ldr	r3, .L25+20
 609 0030 1022     		movs	r2, #16
 610 0032 1A70     		strb	r2, [r3]
 546:.\Generated_Source\PSoC5/cyfitter_cfg.c **** 	CY_SET_XTND_REG8((void CYFAR *)CYREG_PUMP_CR0, 0x44u);
 611              		.loc 1 546 0
 612 0034 094B     		ldr	r3, .L25+24
 613 0036 4422     		movs	r2, #68
 614 0038 1A70     		strb	r2, [r3]
 547:.\Generated_Source\PSoC5/cyfitter_cfg.c **** }
 615              		.loc 1 547 0
 616 003a 0C37     		adds	r7, r7, #12
 617              		.cfi_def_cfa_offset 4
 618 003c BD46     		mov	sp, r7
 619              		.cfi_def_cfa_register 13
 620              		@ sp needed
 621 003e 5DF8047B 		ldr	r7, [sp], #4
 622              		.cfi_restore 7
 623              		.cfi_def_cfa_offset 0
 624 0042 7047     		bx	lr
 625              	.L26:
 626              		.align	2
 627              	.L25:
 628 0044 CF010049 		.word	1224737231
 629 0048 6E580040 		.word	1073764462
 630 004c 6F580040 		.word	1073764463
 631 0050 935A0040 		.word	1073765011
 632 0054 005B0040 		.word	1073765120
 633 0058 585B0040 		.word	1073765208
 634 005c 76580040 		.word	1073764470
 635              		.cfi_endproc
 636              	.LFE6:
 637              		.size	AnalogSetDefault, .-AnalogSetDefault
 638              		.section	.text.SetAnalogRoutingPumps,"ax",%progbits
 639              		.align	2
 640              		.global	SetAnalogRoutingPumps
 641              		.thumb
 642              		.thumb_func
 643              		.type	SetAnalogRoutingPumps, %function
 644              	SetAnalogRoutingPumps:
 645              	.LFB7:
ARM GAS  C:\Users\MONICA~1\AppData\Local\Temp\ccm12Pzq.s 			page 22


 548:.\Generated_Source\PSoC5/cyfitter_cfg.c **** 
 549:.\Generated_Source\PSoC5/cyfitter_cfg.c **** 
 550:.\Generated_Source\PSoC5/cyfitter_cfg.c **** /*******************************************************************************
 551:.\Generated_Source\PSoC5/cyfitter_cfg.c **** * Function Name: SetAnalogRoutingPumps
 552:.\Generated_Source\PSoC5/cyfitter_cfg.c **** ********************************************************************************
 553:.\Generated_Source\PSoC5/cyfitter_cfg.c **** *
 554:.\Generated_Source\PSoC5/cyfitter_cfg.c **** * Summary:
 555:.\Generated_Source\PSoC5/cyfitter_cfg.c **** * Enables or disables the analog pumps feeding analog routing switches.
 556:.\Generated_Source\PSoC5/cyfitter_cfg.c **** * Intended to be called at startup, based on the Vdda system configuration;
 557:.\Generated_Source\PSoC5/cyfitter_cfg.c **** * may be called during operation when the user informs us that the Vdda voltage
 558:.\Generated_Source\PSoC5/cyfitter_cfg.c **** * crossed the pump threshold.
 559:.\Generated_Source\PSoC5/cyfitter_cfg.c **** *
 560:.\Generated_Source\PSoC5/cyfitter_cfg.c **** * Parameters:
 561:.\Generated_Source\PSoC5/cyfitter_cfg.c **** *  enabled - 1 to enable the pumps, 0 to disable the pumps
 562:.\Generated_Source\PSoC5/cyfitter_cfg.c **** *
 563:.\Generated_Source\PSoC5/cyfitter_cfg.c **** * Return:
 564:.\Generated_Source\PSoC5/cyfitter_cfg.c **** *  void
 565:.\Generated_Source\PSoC5/cyfitter_cfg.c **** *
 566:.\Generated_Source\PSoC5/cyfitter_cfg.c **** *******************************************************************************/
 567:.\Generated_Source\PSoC5/cyfitter_cfg.c **** void SetAnalogRoutingPumps(uint8 enabled)
 568:.\Generated_Source\PSoC5/cyfitter_cfg.c **** {
 646              		.loc 1 568 0
 647              		.cfi_startproc
 648              		@ args = 0, pretend = 0, frame = 16
 649              		@ frame_needed = 1, uses_anonymous_args = 0
 650              		@ link register save eliminated.
 651 0000 80B4     		push	{r7}
 652              		.cfi_def_cfa_offset 4
 653              		.cfi_offset 7, -4
 654 0002 85B0     		sub	sp, sp, #20
 655              		.cfi_def_cfa_offset 24
 656 0004 00AF     		add	r7, sp, #0
 657              		.cfi_def_cfa_register 7
 658 0006 0346     		mov	r3, r0
 659 0008 FB71     		strb	r3, [r7, #7]
 569:.\Generated_Source\PSoC5/cyfitter_cfg.c **** 	uint8 regValue = CY_GET_XTND_REG8((void CYFAR *)CYREG_PUMP_CR0);
 660              		.loc 1 569 0
 661 000a 0B4B     		ldr	r3, .L30
 662 000c 1B78     		ldrb	r3, [r3]
 663 000e FB73     		strb	r3, [r7, #15]
 570:.\Generated_Source\PSoC5/cyfitter_cfg.c **** 	if (enabled != 0u)
 664              		.loc 1 570 0
 665 0010 FB79     		ldrb	r3, [r7, #7]	@ zero_extendqisi2
 666 0012 002B     		cmp	r3, #0
 667 0014 04D0     		beq	.L28
 571:.\Generated_Source\PSoC5/cyfitter_cfg.c **** 	{
 572:.\Generated_Source\PSoC5/cyfitter_cfg.c **** 		regValue |= 0x22u;
 668              		.loc 1 572 0
 669 0016 FB7B     		ldrb	r3, [r7, #15]
 670 0018 43F02203 		orr	r3, r3, #34
 671 001c FB73     		strb	r3, [r7, #15]
 672 001e 03E0     		b	.L29
 673              	.L28:
 573:.\Generated_Source\PSoC5/cyfitter_cfg.c **** 	}
 574:.\Generated_Source\PSoC5/cyfitter_cfg.c **** 	else
 575:.\Generated_Source\PSoC5/cyfitter_cfg.c **** 	{
 576:.\Generated_Source\PSoC5/cyfitter_cfg.c **** 		regValue &= (uint8)~0x22u;
ARM GAS  C:\Users\MONICA~1\AppData\Local\Temp\ccm12Pzq.s 			page 23


 674              		.loc 1 576 0
 675 0020 FB7B     		ldrb	r3, [r7, #15]
 676 0022 23F02203 		bic	r3, r3, #34
 677 0026 FB73     		strb	r3, [r7, #15]
 678              	.L29:
 577:.\Generated_Source\PSoC5/cyfitter_cfg.c **** 	}
 578:.\Generated_Source\PSoC5/cyfitter_cfg.c **** 	CY_SET_XTND_REG8((void CYFAR *)CYREG_PUMP_CR0, regValue);
 679              		.loc 1 578 0
 680 0028 034A     		ldr	r2, .L30
 681 002a FB7B     		ldrb	r3, [r7, #15]
 682 002c 1370     		strb	r3, [r2]
 579:.\Generated_Source\PSoC5/cyfitter_cfg.c **** }
 683              		.loc 1 579 0
 684 002e 1437     		adds	r7, r7, #20
 685              		.cfi_def_cfa_offset 4
 686 0030 BD46     		mov	sp, r7
 687              		.cfi_def_cfa_register 13
 688              		@ sp needed
 689 0032 5DF8047B 		ldr	r7, [sp], #4
 690              		.cfi_restore 7
 691              		.cfi_def_cfa_offset 0
 692 0036 7047     		bx	lr
 693              	.L31:
 694              		.align	2
 695              	.L30:
 696 0038 76580040 		.word	1073764470
 697              		.cfi_endproc
 698              	.LFE7:
 699              		.size	SetAnalogRoutingPumps, .-SetAnalogRoutingPumps
 700              		.global	AMuxSeq_CYAMUXSIDE_A_curChannel
 701              		.data
 702              		.type	AMuxSeq_CYAMUXSIDE_A_curChannel, %object
 703              		.size	AMuxSeq_CYAMUXSIDE_A_curChannel, 1
 704              	AMuxSeq_CYAMUXSIDE_A_curChannel:
 705 0000 FF       		.byte	-1
 706              		.section	.text.AMuxSeq_CYAMUXSIDE_A_DisconnectAll,"ax",%progbits
 707              		.align	2
 708              		.global	AMuxSeq_CYAMUXSIDE_A_DisconnectAll
 709              		.thumb
 710              		.thumb_func
 711              		.type	AMuxSeq_CYAMUXSIDE_A_DisconnectAll, %function
 712              	AMuxSeq_CYAMUXSIDE_A_DisconnectAll:
 713              	.LFB8:
 580:.\Generated_Source\PSoC5/cyfitter_cfg.c **** 
 581:.\Generated_Source\PSoC5/cyfitter_cfg.c **** #define CY_AMUX_UNUSED CYREG_BOOST_SR
 582:.\Generated_Source\PSoC5/cyfitter_cfg.c **** int8 AMuxSeq_CYAMUXSIDE_A_curChannel = -1;
 583:.\Generated_Source\PSoC5/cyfitter_cfg.c **** 
 584:.\Generated_Source\PSoC5/cyfitter_cfg.c **** void AMuxSeq_CYAMUXSIDE_A_DisconnectAll(void)
 585:.\Generated_Source\PSoC5/cyfitter_cfg.c **** {
 714              		.loc 1 585 0
 715              		.cfi_startproc
 716              		@ args = 0, pretend = 0, frame = 0
 717              		@ frame_needed = 1, uses_anonymous_args = 0
 718              		@ link register save eliminated.
 719 0000 80B4     		push	{r7}
 720              		.cfi_def_cfa_offset 4
 721              		.cfi_offset 7, -4
ARM GAS  C:\Users\MONICA~1\AppData\Local\Temp\ccm12Pzq.s 			page 24


 722 0002 00AF     		add	r7, sp, #0
 723              		.cfi_def_cfa_register 7
 586:.\Generated_Source\PSoC5/cyfitter_cfg.c **** 	AMuxSeq_CYAMUXSIDE_A_curChannel = -1;
 724              		.loc 1 586 0
 725 0004 174B     		ldr	r3, .L33
 726 0006 FF22     		movs	r2, #255
 727 0008 1A70     		strb	r2, [r3]
 587:.\Generated_Source\PSoC5/cyfitter_cfg.c **** 	CY_SET_REG8((void CYXDATA *)CYREG_PRT0_AG, CY_GET_REG8((void CYXDATA *)(CYREG_PRT0_AG)) & (uint8)~
 728              		.loc 1 587 0
 729 000a 174A     		ldr	r2, .L33+4
 730 000c 164B     		ldr	r3, .L33+4
 731 000e 1B78     		ldrb	r3, [r3]
 732 0010 DBB2     		uxtb	r3, r3
 733 0012 23F05503 		bic	r3, r3, #85
 734 0016 DBB2     		uxtb	r3, r3
 735 0018 1370     		strb	r3, [r2]
 588:.\Generated_Source\PSoC5/cyfitter_cfg.c **** 	CY_SET_REG8((void CYXDATA *)CYREG_PRT15_AG, CY_GET_REG8((void CYXDATA *)(CYREG_PRT15_AG)) & (uint8
 736              		.loc 1 588 0
 737 001a 144A     		ldr	r2, .L33+8
 738 001c 134B     		ldr	r3, .L33+8
 739 001e 1B78     		ldrb	r3, [r3]
 740 0020 DBB2     		uxtb	r3, r3
 741 0022 23F00103 		bic	r3, r3, #1
 742 0026 DBB2     		uxtb	r3, r3
 743 0028 1370     		strb	r3, [r2]
 589:.\Generated_Source\PSoC5/cyfitter_cfg.c **** 	CY_SET_REG8((void CYXDATA *)CYREG_PRT3_AG, CY_GET_REG8((void CYXDATA *)(CYREG_PRT3_AG)) & (uint8)~
 744              		.loc 1 589 0
 745 002a 114A     		ldr	r2, .L33+12
 746 002c 104B     		ldr	r3, .L33+12
 747 002e 1B78     		ldrb	r3, [r3]
 748 0030 DBB2     		uxtb	r3, r3
 749 0032 23F01103 		bic	r3, r3, #17
 750 0036 DBB2     		uxtb	r3, r3
 751 0038 1370     		strb	r3, [r2]
 590:.\Generated_Source\PSoC5/cyfitter_cfg.c **** 	CY_SET_REG8((void CYXDATA *)CYREG_PRT2_AG, CY_GET_REG8((void CYXDATA *)(CYREG_PRT2_AG)) & (uint8)~
 752              		.loc 1 590 0
 753 003a 0E4A     		ldr	r2, .L33+16
 754 003c 0D4B     		ldr	r3, .L33+16
 755 003e 1B78     		ldrb	r3, [r3]
 756 0040 DBB2     		uxtb	r3, r3
 757 0042 23F04003 		bic	r3, r3, #64
 758 0046 DBB2     		uxtb	r3, r3
 759 0048 1370     		strb	r3, [r2]
 591:.\Generated_Source\PSoC5/cyfitter_cfg.c **** 	CY_SET_REG8((void CYXDATA *)CYREG_DSM0_SW0, CY_GET_REG8((void CYXDATA *)(CYREG_DSM0_SW0)) & (uint8
 760              		.loc 1 591 0
 761 004a 0B4A     		ldr	r2, .L33+20
 762 004c 0A4B     		ldr	r3, .L33+20
 763 004e 1B78     		ldrb	r3, [r3]
 764 0050 DBB2     		uxtb	r3, r3
 765 0052 23F00403 		bic	r3, r3, #4
 766 0056 DBB2     		uxtb	r3, r3
 767 0058 1370     		strb	r3, [r2]
 592:.\Generated_Source\PSoC5/cyfitter_cfg.c **** }
 768              		.loc 1 592 0
 769 005a BD46     		mov	sp, r7
 770              		.cfi_def_cfa_register 13
 771              		@ sp needed
ARM GAS  C:\Users\MONICA~1\AppData\Local\Temp\ccm12Pzq.s 			page 25


 772 005c 5DF8047B 		ldr	r7, [sp], #4
 773              		.cfi_restore 7
 774              		.cfi_def_cfa_offset 0
 775 0060 7047     		bx	lr
 776              	.L34:
 777 0062 00BF     		.align	2
 778              	.L33:
 779 0064 00000000 		.word	AMuxSeq_CYAMUXSIDE_A_curChannel
 780 0068 0D510040 		.word	1073762573
 781 006c FD510040 		.word	1073762813
 782 0070 3D510040 		.word	1073762621
 783 0074 2D510040 		.word	1073762605
 784 0078 005B0040 		.word	1073765120
 785              		.cfi_endproc
 786              	.LFE8:
 787              		.size	AMuxSeq_CYAMUXSIDE_A_DisconnectAll, .-AMuxSeq_CYAMUXSIDE_A_DisconnectAll
 788              		.section	.text.AMuxSeq_CYAMUXSIDE_A_Next,"ax",%progbits
 789              		.align	2
 790              		.global	AMuxSeq_CYAMUXSIDE_A_Next
 791              		.thumb
 792              		.thumb_func
 793              		.type	AMuxSeq_CYAMUXSIDE_A_Next, %function
 794              	AMuxSeq_CYAMUXSIDE_A_Next:
 795              	.LFB9:
 593:.\Generated_Source\PSoC5/cyfitter_cfg.c **** 
 594:.\Generated_Source\PSoC5/cyfitter_cfg.c **** #if defined(__C51__) || defined(__CX51__)
 595:.\Generated_Source\PSoC5/cyfitter_cfg.c ****     #pragma OT(5, SPEED)
 596:.\Generated_Source\PSoC5/cyfitter_cfg.c **** #endif
 597:.\Generated_Source\PSoC5/cyfitter_cfg.c **** void AMuxSeq_CYAMUXSIDE_A_Next(void)
 598:.\Generated_Source\PSoC5/cyfitter_cfg.c **** {
 796              		.loc 1 598 0
 797              		.cfi_startproc
 798              		@ args = 0, pretend = 0, frame = 0
 799              		@ frame_needed = 1, uses_anonymous_args = 0
 800              		@ link register save eliminated.
 801 0000 80B4     		push	{r7}
 802              		.cfi_def_cfa_offset 4
 803              		.cfi_offset 7, -4
 804 0002 00AF     		add	r7, sp, #0
 805              		.cfi_def_cfa_register 7
 599:.\Generated_Source\PSoC5/cyfitter_cfg.c **** 	AMuxSeq_CYAMUXSIDE_A_curChannel++;
 806              		.loc 1 599 0
 807 0004 604B     		ldr	r3, .L47
 808 0006 1B78     		ldrb	r3, [r3]	@ zero_extendqisi2
 809 0008 DBB2     		uxtb	r3, r3
 810 000a DBB2     		uxtb	r3, r3
 811 000c 0133     		adds	r3, r3, #1
 812 000e DBB2     		uxtb	r3, r3
 813 0010 DAB2     		uxtb	r2, r3
 814 0012 5D4B     		ldr	r3, .L47
 815 0014 1A70     		strb	r2, [r3]
 600:.\Generated_Source\PSoC5/cyfitter_cfg.c **** 	switch (AMuxSeq_CYAMUXSIDE_A_curChannel)
 816              		.loc 1 600 0
 817 0016 5C4B     		ldr	r3, .L47
 818 0018 1B78     		ldrb	r3, [r3]	@ zero_extendqisi2
 819 001a 5BB2     		sxtb	r3, r3
 820 001c 072B     		cmp	r3, #7
ARM GAS  C:\Users\MONICA~1\AppData\Local\Temp\ccm12Pzq.s 			page 26


 821 001e 13D8     		bhi	.L36
 822 0020 01A2     		adr	r2, .L38
 823 0022 52F823F0 		ldr	pc, [r2, r3, lsl #2]
 824 0026 00BF     		.p2align 2
 825              	.L38:
 826 0028 4F000000 		.word	.L37+1
 827 002c 81000000 		.word	.L39+1
 828 0030 A3000000 		.word	.L40+1
 829 0034 C5000000 		.word	.L41+1
 830 0038 E7000000 		.word	.L42+1
 831 003c 09010000 		.word	.L43+1
 832 0040 2B010000 		.word	.L44+1
 833 0044 4D010000 		.word	.L45+1
 834              		.p2align 1
 835              	.L36:
 601:.\Generated_Source\PSoC5/cyfitter_cfg.c **** 	{
 602:.\Generated_Source\PSoC5/cyfitter_cfg.c **** 	case 8:
 603:.\Generated_Source\PSoC5/cyfitter_cfg.c **** 	default:
 604:.\Generated_Source\PSoC5/cyfitter_cfg.c **** 		AMuxSeq_CYAMUXSIDE_A_curChannel = 0;
 836              		.loc 1 604 0
 837 0048 4F4B     		ldr	r3, .L47
 838 004a 0022     		movs	r2, #0
 839 004c 1A70     		strb	r2, [r3]
 840              	.L37:
 605:.\Generated_Source\PSoC5/cyfitter_cfg.c **** 	case 0:
 606:.\Generated_Source\PSoC5/cyfitter_cfg.c **** 		CY_SET_REG8((void CYXDATA *)CYREG_PRT2_AG, CY_GET_REG8((void CYXDATA *)(CYREG_PRT2_AG)) & (uint8)
 841              		.loc 1 606 0
 842 004e 4F4A     		ldr	r2, .L47+4
 843 0050 4E4B     		ldr	r3, .L47+4
 844 0052 1B78     		ldrb	r3, [r3]
 845 0054 DBB2     		uxtb	r3, r3
 846 0056 23F04003 		bic	r3, r3, #64
 847 005a DBB2     		uxtb	r3, r3
 848 005c 1370     		strb	r3, [r2]
 607:.\Generated_Source\PSoC5/cyfitter_cfg.c **** 		CY_SET_REG8((void CYXDATA *)CYREG_DSM0_SW0, CY_GET_REG8((void CYXDATA *)(CYREG_DSM0_SW0)) & (uint
 849              		.loc 1 607 0
 850 005e 4C4A     		ldr	r2, .L47+8
 851 0060 4B4B     		ldr	r3, .L47+8
 852 0062 1B78     		ldrb	r3, [r3]
 853 0064 DBB2     		uxtb	r3, r3
 854 0066 23F00403 		bic	r3, r3, #4
 855 006a DBB2     		uxtb	r3, r3
 856 006c 1370     		strb	r3, [r2]
 608:.\Generated_Source\PSoC5/cyfitter_cfg.c **** 		CY_SET_REG8((void CYXDATA *)CYREG_PRT0_AG, CY_GET_REG8((void CYXDATA *)(CYREG_PRT0_AG)) | 0x40u);
 857              		.loc 1 608 0
 858 006e 494A     		ldr	r2, .L47+12
 859 0070 484B     		ldr	r3, .L47+12
 860 0072 1B78     		ldrb	r3, [r3]
 861 0074 DBB2     		uxtb	r3, r3
 862 0076 43F04003 		orr	r3, r3, #64
 863 007a DBB2     		uxtb	r3, r3
 864 007c 1370     		strb	r3, [r2]
 609:.\Generated_Source\PSoC5/cyfitter_cfg.c **** 		break;
 865              		.loc 1 609 0
 866 007e 7EE0     		b	.L35
 867              	.L39:
 610:.\Generated_Source\PSoC5/cyfitter_cfg.c **** 	case 1:
ARM GAS  C:\Users\MONICA~1\AppData\Local\Temp\ccm12Pzq.s 			page 27


 611:.\Generated_Source\PSoC5/cyfitter_cfg.c **** 		CY_SET_REG8((void CYXDATA *)CYREG_PRT0_AG, CY_GET_REG8((void CYXDATA *)(CYREG_PRT0_AG)) & (uint8)
 868              		.loc 1 611 0
 869 0080 444A     		ldr	r2, .L47+12
 870 0082 444B     		ldr	r3, .L47+12
 871 0084 1B78     		ldrb	r3, [r3]
 872 0086 DBB2     		uxtb	r3, r3
 873 0088 23F04003 		bic	r3, r3, #64
 874 008c DBB2     		uxtb	r3, r3
 875 008e 1370     		strb	r3, [r2]
 612:.\Generated_Source\PSoC5/cyfitter_cfg.c **** 		CY_SET_REG8((void CYXDATA *)CYREG_PRT15_AG, CY_GET_REG8((void CYXDATA *)(CYREG_PRT15_AG)) | 0x01u
 876              		.loc 1 612 0
 877 0090 414A     		ldr	r2, .L47+16
 878 0092 414B     		ldr	r3, .L47+16
 879 0094 1B78     		ldrb	r3, [r3]
 880 0096 DBB2     		uxtb	r3, r3
 881 0098 43F00103 		orr	r3, r3, #1
 882 009c DBB2     		uxtb	r3, r3
 883 009e 1370     		strb	r3, [r2]
 613:.\Generated_Source\PSoC5/cyfitter_cfg.c **** 		break;
 884              		.loc 1 613 0
 885 00a0 6DE0     		b	.L35
 886              	.L40:
 614:.\Generated_Source\PSoC5/cyfitter_cfg.c **** 	case 2:
 615:.\Generated_Source\PSoC5/cyfitter_cfg.c **** 		CY_SET_REG8((void CYXDATA *)CYREG_PRT15_AG, CY_GET_REG8((void CYXDATA *)(CYREG_PRT15_AG)) & (uint
 887              		.loc 1 615 0
 888 00a2 3D4A     		ldr	r2, .L47+16
 889 00a4 3C4B     		ldr	r3, .L47+16
 890 00a6 1B78     		ldrb	r3, [r3]
 891 00a8 DBB2     		uxtb	r3, r3
 892 00aa 23F00103 		bic	r3, r3, #1
 893 00ae DBB2     		uxtb	r3, r3
 894 00b0 1370     		strb	r3, [r2]
 616:.\Generated_Source\PSoC5/cyfitter_cfg.c **** 		CY_SET_REG8((void CYXDATA *)CYREG_PRT0_AG, CY_GET_REG8((void CYXDATA *)(CYREG_PRT0_AG)) | 0x10u);
 895              		.loc 1 616 0
 896 00b2 384A     		ldr	r2, .L47+12
 897 00b4 374B     		ldr	r3, .L47+12
 898 00b6 1B78     		ldrb	r3, [r3]
 899 00b8 DBB2     		uxtb	r3, r3
 900 00ba 43F01003 		orr	r3, r3, #16
 901 00be DBB2     		uxtb	r3, r3
 902 00c0 1370     		strb	r3, [r2]
 617:.\Generated_Source\PSoC5/cyfitter_cfg.c **** 		break;
 903              		.loc 1 617 0
 904 00c2 5CE0     		b	.L35
 905              	.L41:
 618:.\Generated_Source\PSoC5/cyfitter_cfg.c **** 	case 3:
 619:.\Generated_Source\PSoC5/cyfitter_cfg.c **** 		CY_SET_REG8((void CYXDATA *)CYREG_PRT0_AG, CY_GET_REG8((void CYXDATA *)(CYREG_PRT0_AG)) & (uint8)
 906              		.loc 1 619 0
 907 00c4 334A     		ldr	r2, .L47+12
 908 00c6 334B     		ldr	r3, .L47+12
 909 00c8 1B78     		ldrb	r3, [r3]
 910 00ca DBB2     		uxtb	r3, r3
 911 00cc 23F01003 		bic	r3, r3, #16
 912 00d0 DBB2     		uxtb	r3, r3
 913 00d2 1370     		strb	r3, [r2]
 620:.\Generated_Source\PSoC5/cyfitter_cfg.c **** 		CY_SET_REG8((void CYXDATA *)CYREG_PRT3_AG, CY_GET_REG8((void CYXDATA *)(CYREG_PRT3_AG)) | 0x01u);
 914              		.loc 1 620 0
ARM GAS  C:\Users\MONICA~1\AppData\Local\Temp\ccm12Pzq.s 			page 28


 915 00d4 314A     		ldr	r2, .L47+20
 916 00d6 314B     		ldr	r3, .L47+20
 917 00d8 1B78     		ldrb	r3, [r3]
 918 00da DBB2     		uxtb	r3, r3
 919 00dc 43F00103 		orr	r3, r3, #1
 920 00e0 DBB2     		uxtb	r3, r3
 921 00e2 1370     		strb	r3, [r2]
 621:.\Generated_Source\PSoC5/cyfitter_cfg.c **** 		break;
 922              		.loc 1 621 0
 923 00e4 4BE0     		b	.L35
 924              	.L42:
 622:.\Generated_Source\PSoC5/cyfitter_cfg.c **** 	case 4:
 623:.\Generated_Source\PSoC5/cyfitter_cfg.c **** 		CY_SET_REG8((void CYXDATA *)CYREG_PRT3_AG, CY_GET_REG8((void CYXDATA *)(CYREG_PRT3_AG)) & (uint8)
 925              		.loc 1 623 0
 926 00e6 2D4A     		ldr	r2, .L47+20
 927 00e8 2C4B     		ldr	r3, .L47+20
 928 00ea 1B78     		ldrb	r3, [r3]
 929 00ec DBB2     		uxtb	r3, r3
 930 00ee 23F00103 		bic	r3, r3, #1
 931 00f2 DBB2     		uxtb	r3, r3
 932 00f4 1370     		strb	r3, [r2]
 624:.\Generated_Source\PSoC5/cyfitter_cfg.c **** 		CY_SET_REG8((void CYXDATA *)CYREG_PRT3_AG, CY_GET_REG8((void CYXDATA *)(CYREG_PRT3_AG)) | 0x10u);
 933              		.loc 1 624 0
 934 00f6 294A     		ldr	r2, .L47+20
 935 00f8 284B     		ldr	r3, .L47+20
 936 00fa 1B78     		ldrb	r3, [r3]
 937 00fc DBB2     		uxtb	r3, r3
 938 00fe 43F01003 		orr	r3, r3, #16
 939 0102 DBB2     		uxtb	r3, r3
 940 0104 1370     		strb	r3, [r2]
 625:.\Generated_Source\PSoC5/cyfitter_cfg.c **** 		break;
 941              		.loc 1 625 0
 942 0106 3AE0     		b	.L35
 943              	.L43:
 626:.\Generated_Source\PSoC5/cyfitter_cfg.c **** 	case 5:
 627:.\Generated_Source\PSoC5/cyfitter_cfg.c **** 		CY_SET_REG8((void CYXDATA *)CYREG_PRT3_AG, CY_GET_REG8((void CYXDATA *)(CYREG_PRT3_AG)) & (uint8)
 944              		.loc 1 627 0
 945 0108 244A     		ldr	r2, .L47+20
 946 010a 244B     		ldr	r3, .L47+20
 947 010c 1B78     		ldrb	r3, [r3]
 948 010e DBB2     		uxtb	r3, r3
 949 0110 23F01003 		bic	r3, r3, #16
 950 0114 DBB2     		uxtb	r3, r3
 951 0116 1370     		strb	r3, [r2]
 628:.\Generated_Source\PSoC5/cyfitter_cfg.c **** 		CY_SET_REG8((void CYXDATA *)CYREG_PRT0_AG, CY_GET_REG8((void CYXDATA *)(CYREG_PRT0_AG)) | 0x04u);
 952              		.loc 1 628 0
 953 0118 1E4A     		ldr	r2, .L47+12
 954 011a 1E4B     		ldr	r3, .L47+12
 955 011c 1B78     		ldrb	r3, [r3]
 956 011e DBB2     		uxtb	r3, r3
 957 0120 43F00403 		orr	r3, r3, #4
 958 0124 DBB2     		uxtb	r3, r3
 959 0126 1370     		strb	r3, [r2]
 629:.\Generated_Source\PSoC5/cyfitter_cfg.c **** 		break;
 960              		.loc 1 629 0
 961 0128 29E0     		b	.L35
 962              	.L44:
ARM GAS  C:\Users\MONICA~1\AppData\Local\Temp\ccm12Pzq.s 			page 29


 630:.\Generated_Source\PSoC5/cyfitter_cfg.c **** 	case 6:
 631:.\Generated_Source\PSoC5/cyfitter_cfg.c **** 		CY_SET_REG8((void CYXDATA *)CYREG_PRT0_AG, CY_GET_REG8((void CYXDATA *)(CYREG_PRT0_AG)) & (uint8)
 963              		.loc 1 631 0
 964 012a 1A4A     		ldr	r2, .L47+12
 965 012c 194B     		ldr	r3, .L47+12
 966 012e 1B78     		ldrb	r3, [r3]
 967 0130 DBB2     		uxtb	r3, r3
 968 0132 23F00403 		bic	r3, r3, #4
 969 0136 DBB2     		uxtb	r3, r3
 970 0138 1370     		strb	r3, [r2]
 632:.\Generated_Source\PSoC5/cyfitter_cfg.c **** 		CY_SET_REG8((void CYXDATA *)CYREG_PRT0_AG, CY_GET_REG8((void CYXDATA *)(CYREG_PRT0_AG)) | 0x01u);
 971              		.loc 1 632 0
 972 013a 164A     		ldr	r2, .L47+12
 973 013c 154B     		ldr	r3, .L47+12
 974 013e 1B78     		ldrb	r3, [r3]
 975 0140 DBB2     		uxtb	r3, r3
 976 0142 43F00103 		orr	r3, r3, #1
 977 0146 DBB2     		uxtb	r3, r3
 978 0148 1370     		strb	r3, [r2]
 633:.\Generated_Source\PSoC5/cyfitter_cfg.c **** 		break;
 979              		.loc 1 633 0
 980 014a 18E0     		b	.L35
 981              	.L45:
 634:.\Generated_Source\PSoC5/cyfitter_cfg.c **** 	case 7:
 635:.\Generated_Source\PSoC5/cyfitter_cfg.c **** 		CY_SET_REG8((void CYXDATA *)CYREG_PRT0_AG, CY_GET_REG8((void CYXDATA *)(CYREG_PRT0_AG)) & (uint8)
 982              		.loc 1 635 0
 983 014c 114A     		ldr	r2, .L47+12
 984 014e 114B     		ldr	r3, .L47+12
 985 0150 1B78     		ldrb	r3, [r3]
 986 0152 DBB2     		uxtb	r3, r3
 987 0154 23F00103 		bic	r3, r3, #1
 988 0158 DBB2     		uxtb	r3, r3
 989 015a 1370     		strb	r3, [r2]
 636:.\Generated_Source\PSoC5/cyfitter_cfg.c **** 		CY_SET_REG8((void CYXDATA *)CYREG_PRT2_AG, CY_GET_REG8((void CYXDATA *)(CYREG_PRT2_AG)) | 0x40u);
 990              		.loc 1 636 0
 991 015c 0B4A     		ldr	r2, .L47+4
 992 015e 0B4B     		ldr	r3, .L47+4
 993 0160 1B78     		ldrb	r3, [r3]
 994 0162 DBB2     		uxtb	r3, r3
 995 0164 43F04003 		orr	r3, r3, #64
 996 0168 DBB2     		uxtb	r3, r3
 997 016a 1370     		strb	r3, [r2]
 637:.\Generated_Source\PSoC5/cyfitter_cfg.c **** 		CY_SET_REG8((void CYXDATA *)CYREG_DSM0_SW0, CY_GET_REG8((void CYXDATA *)(CYREG_DSM0_SW0)) | 0x04u
 998              		.loc 1 637 0
 999 016c 084A     		ldr	r2, .L47+8
 1000 016e 084B     		ldr	r3, .L47+8
 1001 0170 1B78     		ldrb	r3, [r3]
 1002 0172 DBB2     		uxtb	r3, r3
 1003 0174 43F00403 		orr	r3, r3, #4
 1004 0178 DBB2     		uxtb	r3, r3
 1005 017a 1370     		strb	r3, [r2]
 638:.\Generated_Source\PSoC5/cyfitter_cfg.c **** 		break;
 1006              		.loc 1 638 0
 1007 017c 00BF     		nop
 1008              	.L35:
 639:.\Generated_Source\PSoC5/cyfitter_cfg.c **** 	}
 640:.\Generated_Source\PSoC5/cyfitter_cfg.c **** }
ARM GAS  C:\Users\MONICA~1\AppData\Local\Temp\ccm12Pzq.s 			page 30


 1009              		.loc 1 640 0
 1010 017e BD46     		mov	sp, r7
 1011              		.cfi_def_cfa_register 13
 1012              		@ sp needed
 1013 0180 5DF8047B 		ldr	r7, [sp], #4
 1014              		.cfi_restore 7
 1015              		.cfi_def_cfa_offset 0
 1016 0184 7047     		bx	lr
 1017              	.L48:
 1018 0186 00BF     		.align	2
 1019              	.L47:
 1020 0188 00000000 		.word	AMuxSeq_CYAMUXSIDE_A_curChannel
 1021 018c 2D510040 		.word	1073762605
 1022 0190 005B0040 		.word	1073765120
 1023 0194 0D510040 		.word	1073762573
 1024 0198 FD510040 		.word	1073762813
 1025 019c 3D510040 		.word	1073762621
 1026              		.cfi_endproc
 1027              	.LFE9:
 1028              		.size	AMuxSeq_CYAMUXSIDE_A_Next, .-AMuxSeq_CYAMUXSIDE_A_Next
 1029              		.global	AMuxSeq_CYAMUXSIDE_B_curChannel
 1030              		.data
 1031              		.type	AMuxSeq_CYAMUXSIDE_B_curChannel, %object
 1032              		.size	AMuxSeq_CYAMUXSIDE_B_curChannel, 1
 1033              	AMuxSeq_CYAMUXSIDE_B_curChannel:
 1034 0001 FF       		.byte	-1
 1035              		.section	.text.AMuxSeq_CYAMUXSIDE_B_DisconnectAll,"ax",%progbits
 1036              		.align	2
 1037              		.global	AMuxSeq_CYAMUXSIDE_B_DisconnectAll
 1038              		.thumb
 1039              		.thumb_func
 1040              		.type	AMuxSeq_CYAMUXSIDE_B_DisconnectAll, %function
 1041              	AMuxSeq_CYAMUXSIDE_B_DisconnectAll:
 1042              	.LFB10:
 641:.\Generated_Source\PSoC5/cyfitter_cfg.c **** 
 642:.\Generated_Source\PSoC5/cyfitter_cfg.c **** int8 AMuxSeq_CYAMUXSIDE_B_curChannel = -1;
 643:.\Generated_Source\PSoC5/cyfitter_cfg.c **** 
 644:.\Generated_Source\PSoC5/cyfitter_cfg.c **** void AMuxSeq_CYAMUXSIDE_B_DisconnectAll(void)
 645:.\Generated_Source\PSoC5/cyfitter_cfg.c **** {
 1043              		.loc 1 645 0
 1044              		.cfi_startproc
 1045              		@ args = 0, pretend = 0, frame = 0
 1046              		@ frame_needed = 1, uses_anonymous_args = 0
 1047              		@ link register save eliminated.
 1048 0000 80B4     		push	{r7}
 1049              		.cfi_def_cfa_offset 4
 1050              		.cfi_offset 7, -4
 1051 0002 00AF     		add	r7, sp, #0
 1052              		.cfi_def_cfa_register 7
 646:.\Generated_Source\PSoC5/cyfitter_cfg.c **** 	AMuxSeq_CYAMUXSIDE_B_curChannel = -1;
 1053              		.loc 1 646 0
 1054 0004 0B4B     		ldr	r3, .L50
 1055 0006 FF22     		movs	r2, #255
 1056 0008 1A70     		strb	r2, [r3]
 647:.\Generated_Source\PSoC5/cyfitter_cfg.c **** 	CY_SET_REG8((void CYXDATA *)CYREG_PRT2_AG, CY_GET_REG8((void CYXDATA *)(CYREG_PRT2_AG)) & (uint8)~
 1057              		.loc 1 647 0
 1058 000a 0B4A     		ldr	r2, .L50+4
ARM GAS  C:\Users\MONICA~1\AppData\Local\Temp\ccm12Pzq.s 			page 31


 1059 000c 0A4B     		ldr	r3, .L50+4
 1060 000e 1B78     		ldrb	r3, [r3]
 1061 0010 DBB2     		uxtb	r3, r3
 1062 0012 03F07F03 		and	r3, r3, #127
 1063 0016 DBB2     		uxtb	r3, r3
 1064 0018 1370     		strb	r3, [r2]
 648:.\Generated_Source\PSoC5/cyfitter_cfg.c **** 	CY_SET_REG8((void CYXDATA *)CYREG_DSM0_SW4, CY_GET_REG8((void CYXDATA *)(CYREG_DSM0_SW4)) & (uint8
 1065              		.loc 1 648 0
 1066 001a 084A     		ldr	r2, .L50+8
 1067 001c 074B     		ldr	r3, .L50+8
 1068 001e 1B78     		ldrb	r3, [r3]
 1069 0020 DBB2     		uxtb	r3, r3
 1070 0022 23F00803 		bic	r3, r3, #8
 1071 0026 DBB2     		uxtb	r3, r3
 1072 0028 1370     		strb	r3, [r2]
 649:.\Generated_Source\PSoC5/cyfitter_cfg.c **** }
 1073              		.loc 1 649 0
 1074 002a BD46     		mov	sp, r7
 1075              		.cfi_def_cfa_register 13
 1076              		@ sp needed
 1077 002c 5DF8047B 		ldr	r7, [sp], #4
 1078              		.cfi_restore 7
 1079              		.cfi_def_cfa_offset 0
 1080 0030 7047     		bx	lr
 1081              	.L51:
 1082 0032 00BF     		.align	2
 1083              	.L50:
 1084 0034 00000000 		.word	AMuxSeq_CYAMUXSIDE_B_curChannel
 1085 0038 2D510040 		.word	1073762605
 1086 003c 045B0040 		.word	1073765124
 1087              		.cfi_endproc
 1088              	.LFE10:
 1089              		.size	AMuxSeq_CYAMUXSIDE_B_DisconnectAll, .-AMuxSeq_CYAMUXSIDE_B_DisconnectAll
 1090              		.section	.text.AMuxSeq_CYAMUXSIDE_B_Next,"ax",%progbits
 1091              		.align	2
 1092              		.global	AMuxSeq_CYAMUXSIDE_B_Next
 1093              		.thumb
 1094              		.thumb_func
 1095              		.type	AMuxSeq_CYAMUXSIDE_B_Next, %function
 1096              	AMuxSeq_CYAMUXSIDE_B_Next:
 1097              	.LFB11:
 650:.\Generated_Source\PSoC5/cyfitter_cfg.c **** 
 651:.\Generated_Source\PSoC5/cyfitter_cfg.c **** #if defined(__C51__) || defined(__CX51__)
 652:.\Generated_Source\PSoC5/cyfitter_cfg.c ****     #pragma OT(5, SPEED)
 653:.\Generated_Source\PSoC5/cyfitter_cfg.c **** #endif
 654:.\Generated_Source\PSoC5/cyfitter_cfg.c **** void AMuxSeq_CYAMUXSIDE_B_Next(void)
 655:.\Generated_Source\PSoC5/cyfitter_cfg.c **** {
 1098              		.loc 1 655 0
 1099              		.cfi_startproc
 1100              		@ args = 0, pretend = 0, frame = 0
 1101              		@ frame_needed = 1, uses_anonymous_args = 0
 1102              		@ link register save eliminated.
 1103 0000 80B4     		push	{r7}
 1104              		.cfi_def_cfa_offset 4
 1105              		.cfi_offset 7, -4
 1106 0002 00AF     		add	r7, sp, #0
 1107              		.cfi_def_cfa_register 7
ARM GAS  C:\Users\MONICA~1\AppData\Local\Temp\ccm12Pzq.s 			page 32


 656:.\Generated_Source\PSoC5/cyfitter_cfg.c **** 	AMuxSeq_CYAMUXSIDE_B_curChannel++;
 1108              		.loc 1 656 0
 1109 0004 1D4B     		ldr	r3, .L65
 1110 0006 1B78     		ldrb	r3, [r3]	@ zero_extendqisi2
 1111 0008 DBB2     		uxtb	r3, r3
 1112 000a DBB2     		uxtb	r3, r3
 1113 000c 0133     		adds	r3, r3, #1
 1114 000e DBB2     		uxtb	r3, r3
 1115 0010 DAB2     		uxtb	r2, r3
 1116 0012 1A4B     		ldr	r3, .L65
 1117 0014 1A70     		strb	r2, [r3]
 657:.\Generated_Source\PSoC5/cyfitter_cfg.c **** 	switch (AMuxSeq_CYAMUXSIDE_B_curChannel)
 1118              		.loc 1 657 0
 1119 0016 194B     		ldr	r3, .L65
 1120 0018 1B78     		ldrb	r3, [r3]	@ zero_extendqisi2
 1121 001a 5BB2     		sxtb	r3, r3
 1122 001c 072B     		cmp	r3, #7
 1123 001e 13D8     		bhi	.L53
 1124 0020 01A2     		adr	r2, .L55
 1125 0022 52F823F0 		ldr	pc, [r2, r3, lsl #2]
 1126 0026 00BF     		.p2align 2
 1127              	.L55:
 1128 0028 4F000000 		.word	.L54+1
 1129 002c 71000000 		.word	.L64+1
 1130 0030 71000000 		.word	.L64+1
 1131 0034 71000000 		.word	.L64+1
 1132 0038 71000000 		.word	.L64+1
 1133 003c 71000000 		.word	.L64+1
 1134 0040 71000000 		.word	.L64+1
 1135 0044 71000000 		.word	.L64+1
 1136              		.p2align 1
 1137              	.L53:
 658:.\Generated_Source\PSoC5/cyfitter_cfg.c **** 	{
 659:.\Generated_Source\PSoC5/cyfitter_cfg.c **** 	case 8:
 660:.\Generated_Source\PSoC5/cyfitter_cfg.c **** 	default:
 661:.\Generated_Source\PSoC5/cyfitter_cfg.c **** 		AMuxSeq_CYAMUXSIDE_B_curChannel = 0;
 1138              		.loc 1 661 0
 1139 0048 0C4B     		ldr	r3, .L65
 1140 004a 0022     		movs	r2, #0
 1141 004c 1A70     		strb	r2, [r3]
 1142              	.L54:
 662:.\Generated_Source\PSoC5/cyfitter_cfg.c **** 	case 0:
 663:.\Generated_Source\PSoC5/cyfitter_cfg.c **** 		CY_SET_REG8((void CYXDATA *)CYREG_PRT2_AG, CY_GET_REG8((void CYXDATA *)(CYREG_PRT2_AG)) | 0x80u);
 1143              		.loc 1 663 0
 1144 004e 0C4A     		ldr	r2, .L65+4
 1145 0050 0B4B     		ldr	r3, .L65+4
 1146 0052 1B78     		ldrb	r3, [r3]
 1147 0054 DBB2     		uxtb	r3, r3
 1148 0056 63F07F03 		orn	r3, r3, #127
 1149 005a DBB2     		uxtb	r3, r3
 1150 005c 1370     		strb	r3, [r2]
 664:.\Generated_Source\PSoC5/cyfitter_cfg.c **** 		CY_SET_REG8((void CYXDATA *)CYREG_DSM0_SW4, CY_GET_REG8((void CYXDATA *)(CYREG_DSM0_SW4)) | 0x08u
 1151              		.loc 1 664 0
 1152 005e 094A     		ldr	r2, .L65+8
 1153 0060 084B     		ldr	r3, .L65+8
 1154 0062 1B78     		ldrb	r3, [r3]
 1155 0064 DBB2     		uxtb	r3, r3
ARM GAS  C:\Users\MONICA~1\AppData\Local\Temp\ccm12Pzq.s 			page 33


 1156 0066 43F00803 		orr	r3, r3, #8
 1157 006a DBB2     		uxtb	r3, r3
 1158 006c 1370     		strb	r3, [r2]
 665:.\Generated_Source\PSoC5/cyfitter_cfg.c **** 		break;
 1159              		.loc 1 665 0
 1160 006e 00E0     		b	.L52
 1161              	.L64:
 666:.\Generated_Source\PSoC5/cyfitter_cfg.c **** 	case 1:
 667:.\Generated_Source\PSoC5/cyfitter_cfg.c **** 		break;
 1162              		.loc 1 667 0
 1163 0070 00BF     		nop
 1164              	.L52:
 668:.\Generated_Source\PSoC5/cyfitter_cfg.c **** 	case 2:
 669:.\Generated_Source\PSoC5/cyfitter_cfg.c **** 		break;
 670:.\Generated_Source\PSoC5/cyfitter_cfg.c **** 	case 3:
 671:.\Generated_Source\PSoC5/cyfitter_cfg.c **** 		break;
 672:.\Generated_Source\PSoC5/cyfitter_cfg.c **** 	case 4:
 673:.\Generated_Source\PSoC5/cyfitter_cfg.c **** 		break;
 674:.\Generated_Source\PSoC5/cyfitter_cfg.c **** 	case 5:
 675:.\Generated_Source\PSoC5/cyfitter_cfg.c **** 		break;
 676:.\Generated_Source\PSoC5/cyfitter_cfg.c **** 	case 6:
 677:.\Generated_Source\PSoC5/cyfitter_cfg.c **** 		break;
 678:.\Generated_Source\PSoC5/cyfitter_cfg.c **** 	case 7:
 679:.\Generated_Source\PSoC5/cyfitter_cfg.c **** 		break;
 680:.\Generated_Source\PSoC5/cyfitter_cfg.c **** 	}
 681:.\Generated_Source\PSoC5/cyfitter_cfg.c **** }
 1165              		.loc 1 681 0
 1166 0072 BD46     		mov	sp, r7
 1167              		.cfi_def_cfa_register 13
 1168              		@ sp needed
 1169 0074 5DF8047B 		ldr	r7, [sp], #4
 1170              		.cfi_restore 7
 1171              		.cfi_def_cfa_offset 0
 1172 0078 7047     		bx	lr
 1173              	.L66:
 1174 007a 00BF     		.align	2
 1175              	.L65:
 1176 007c 00000000 		.word	AMuxSeq_CYAMUXSIDE_B_curChannel
 1177 0080 2D510040 		.word	1073762605
 1178 0084 045B0040 		.word	1073765124
 1179              		.cfi_endproc
 1180              	.LFE11:
 1181              		.size	AMuxSeq_CYAMUXSIDE_B_Next, .-AMuxSeq_CYAMUXSIDE_B_Next
 1182              		.section	.text.cyfitter_cfg,"ax",%progbits
 1183              		.align	2
 1184              		.global	cyfitter_cfg
 1185              		.thumb
 1186              		.thumb_func
 1187              		.type	cyfitter_cfg, %function
 1188              	cyfitter_cfg:
 1189              	.LFB12:
 682:.\Generated_Source\PSoC5/cyfitter_cfg.c **** 
 683:.\Generated_Source\PSoC5/cyfitter_cfg.c **** 
 684:.\Generated_Source\PSoC5/cyfitter_cfg.c **** 
 685:.\Generated_Source\PSoC5/cyfitter_cfg.c **** /*******************************************************************************
 686:.\Generated_Source\PSoC5/cyfitter_cfg.c **** * Function Name: cyfitter_cfg
 687:.\Generated_Source\PSoC5/cyfitter_cfg.c **** ********************************************************************************
ARM GAS  C:\Users\MONICA~1\AppData\Local\Temp\ccm12Pzq.s 			page 34


 688:.\Generated_Source\PSoC5/cyfitter_cfg.c **** * Summary:
 689:.\Generated_Source\PSoC5/cyfitter_cfg.c **** *  This function is called by the start-up code for the selected device. It
 690:.\Generated_Source\PSoC5/cyfitter_cfg.c **** *  performs all of the necessary device configuration based on the design
 691:.\Generated_Source\PSoC5/cyfitter_cfg.c **** *  settings.  This includes settings from the Design Wide Resources (DWR) such
 692:.\Generated_Source\PSoC5/cyfitter_cfg.c **** *  as Clocks and Pins as well as any component configuration that is necessary.
 693:.\Generated_Source\PSoC5/cyfitter_cfg.c **** *
 694:.\Generated_Source\PSoC5/cyfitter_cfg.c **** * Parameters:  
 695:.\Generated_Source\PSoC5/cyfitter_cfg.c **** *   void
 696:.\Generated_Source\PSoC5/cyfitter_cfg.c **** *
 697:.\Generated_Source\PSoC5/cyfitter_cfg.c **** * Return:
 698:.\Generated_Source\PSoC5/cyfitter_cfg.c **** *   void
 699:.\Generated_Source\PSoC5/cyfitter_cfg.c **** *
 700:.\Generated_Source\PSoC5/cyfitter_cfg.c **** *******************************************************************************/
 701:.\Generated_Source\PSoC5/cyfitter_cfg.c **** 
 702:.\Generated_Source\PSoC5/cyfitter_cfg.c **** void cyfitter_cfg(void)
 703:.\Generated_Source\PSoC5/cyfitter_cfg.c **** {
 1190              		.loc 1 703 0
 1191              		.cfi_startproc
 1192              		@ args = 0, pretend = 0, frame = 0
 1193              		@ frame_needed = 1, uses_anonymous_args = 0
 1194 0000 80B5     		push	{r7, lr}
 1195              		.cfi_def_cfa_offset 8
 1196              		.cfi_offset 7, -8
 1197              		.cfi_offset 14, -4
 1198 0002 00AF     		add	r7, sp, #0
 1199              		.cfi_def_cfa_register 7
 704:.\Generated_Source\PSoC5/cyfitter_cfg.c **** #ifdef CYGlobalIntDisable
 705:.\Generated_Source\PSoC5/cyfitter_cfg.c **** 	/* Disable interrupts by default. Let user enable if/when they want. */
 706:.\Generated_Source\PSoC5/cyfitter_cfg.c **** 	CYGlobalIntDisable
 1200              		.loc 1 706 0
 1201              	@ 706 ".\Generated_Source\PSoC5\cyfitter_cfg.c" 1
 1202 0004 72B6     		CPSID   i
 1203              	@ 0 "" 2
 707:.\Generated_Source\PSoC5/cyfitter_cfg.c **** #endif
 708:.\Generated_Source\PSoC5/cyfitter_cfg.c **** 
 709:.\Generated_Source\PSoC5/cyfitter_cfg.c **** 
 710:.\Generated_Source\PSoC5/cyfitter_cfg.c **** 	/* Set Flash Cycles based on max possible frequency in case a glitch occurs during ClockSetup(). *
 711:.\Generated_Source\PSoC5/cyfitter_cfg.c **** 	CY_SET_XTND_REG8((void CYFAR *)(CYREG_CACHE_CC_CTL), (((CYDEV_INSTRUCT_CACHE_ENABLED) != 0) ? 0x61
 1204              		.loc 1 711 0
 1205              		.thumb
 1206 0006 304B     		ldr	r3, .L68
 1207 0008 6122     		movs	r2, #97
 1208 000a 1A70     		strb	r2, [r3]
 712:.\Generated_Source\PSoC5/cyfitter_cfg.c **** 	/* Setup clocks based on selections from Clock DWR */
 713:.\Generated_Source\PSoC5/cyfitter_cfg.c **** 	ClockSetup();
 1209              		.loc 1 713 0
 1210 000c FFF7FEFF 		bl	ClockSetup
 714:.\Generated_Source\PSoC5/cyfitter_cfg.c **** 	/* Set Flash Cycles based on newly configured 24.00MHz Bus Clock. */
 715:.\Generated_Source\PSoC5/cyfitter_cfg.c **** 	CY_SET_XTND_REG8((void CYFAR *)(CYREG_CACHE_CC_CTL), (((CYDEV_INSTRUCT_CACHE_ENABLED) != 0) ? 0x81
 1211              		.loc 1 715 0
 1212 0010 2D4B     		ldr	r3, .L68
 1213 0012 8122     		movs	r2, #129
 1214 0014 1A70     		strb	r2, [r3]
 716:.\Generated_Source\PSoC5/cyfitter_cfg.c **** 	/* Enable/Disable Debug functionality based on settings from System DWR */
 717:.\Generated_Source\PSoC5/cyfitter_cfg.c **** 	CY_SET_XTND_REG8((void CYFAR *)CYREG_MLOGIC_DEBUG, (CY_GET_XTND_REG8((void CYFAR *)CYREG_MLOGIC_DE
 1215              		.loc 1 717 0
 1216 0016 2D4A     		ldr	r2, .L68+4
ARM GAS  C:\Users\MONICA~1\AppData\Local\Temp\ccm12Pzq.s 			page 35


 1217 0018 2C4B     		ldr	r3, .L68+4
 1218 001a 1B78     		ldrb	r3, [r3]
 1219 001c DBB2     		uxtb	r3, r3
 1220 001e 43F00403 		orr	r3, r3, #4
 1221 0022 DBB2     		uxtb	r3, r3
 1222 0024 1370     		strb	r3, [r2]
 718:.\Generated_Source\PSoC5/cyfitter_cfg.c **** 
 719:.\Generated_Source\PSoC5/cyfitter_cfg.c **** 	{
 720:.\Generated_Source\PSoC5/cyfitter_cfg.c **** 		cfg_dma_init();
 1223              		.loc 1 720 0
 1224 0026 FFF7FEFF 		bl	cfg_dma_init
 721:.\Generated_Source\PSoC5/cyfitter_cfg.c **** 
 722:.\Generated_Source\PSoC5/cyfitter_cfg.c **** 		/* Perform normal device configuration. Order is not critical for these items. */
 723:.\Generated_Source\PSoC5/cyfitter_cfg.c **** 		CY_SET_XTND_REG8((void CYFAR *)(CYREG_DSM0_CR3), 0x0Au);
 1225              		.loc 1 723 0
 1226 002a 294B     		ldr	r3, .L68+8
 1227 002c 0A22     		movs	r2, #10
 1228 002e 1A70     		strb	r2, [r3]
 724:.\Generated_Source\PSoC5/cyfitter_cfg.c **** 
 725:.\Generated_Source\PSoC5/cyfitter_cfg.c **** 		/* Enable digital routing */
 726:.\Generated_Source\PSoC5/cyfitter_cfg.c **** 		CY_SET_XTND_REG8((void CYFAR *)CYREG_BCTL0_BANK_CTL, CY_GET_XTND_REG8((void CYFAR *)CYREG_BCTL0_B
 1229              		.loc 1 726 0
 1230 0030 284A     		ldr	r2, .L68+12
 1231 0032 284B     		ldr	r3, .L68+12
 1232 0034 1B78     		ldrb	r3, [r3]
 1233 0036 DBB2     		uxtb	r3, r3
 1234 0038 43F00203 		orr	r3, r3, #2
 1235 003c DBB2     		uxtb	r3, r3
 1236 003e 1370     		strb	r3, [r2]
 727:.\Generated_Source\PSoC5/cyfitter_cfg.c **** 		CY_SET_XTND_REG8((void CYFAR *)CYREG_BCTL1_BANK_CTL, CY_GET_XTND_REG8((void CYFAR *)CYREG_BCTL1_B
 1237              		.loc 1 727 0
 1238 0040 254A     		ldr	r2, .L68+16
 1239 0042 254B     		ldr	r3, .L68+16
 1240 0044 1B78     		ldrb	r3, [r3]
 1241 0046 DBB2     		uxtb	r3, r3
 1242 0048 43F00203 		orr	r3, r3, #2
 1243 004c DBB2     		uxtb	r3, r3
 1244 004e 1370     		strb	r3, [r2]
 728:.\Generated_Source\PSoC5/cyfitter_cfg.c **** 
 729:.\Generated_Source\PSoC5/cyfitter_cfg.c **** 		/* Enable UDB array */
 730:.\Generated_Source\PSoC5/cyfitter_cfg.c **** 		CY_SET_XTND_REG8((void CYFAR *)CYREG_PM_ACT_CFG0, CY_GET_XTND_REG8((void CYFAR *)CYREG_PM_ACT_CFG
 1245              		.loc 1 730 0
 1246 0050 224A     		ldr	r2, .L68+20
 1247 0052 224B     		ldr	r3, .L68+20
 1248 0054 1B78     		ldrb	r3, [r3]
 1249 0056 DBB2     		uxtb	r3, r3
 1250 0058 43F04003 		orr	r3, r3, #64
 1251 005c DBB2     		uxtb	r3, r3
 1252 005e 1370     		strb	r3, [r2]
 731:.\Generated_Source\PSoC5/cyfitter_cfg.c **** 		CY_SET_XTND_REG8((void CYFAR *)CYREG_PM_AVAIL_CR2, CY_GET_XTND_REG8((void CYFAR *)CYREG_PM_AVAIL_
 1253              		.loc 1 731 0
 1254 0060 1F4A     		ldr	r2, .L68+24
 1255 0062 1F4B     		ldr	r3, .L68+24
 1256 0064 1B78     		ldrb	r3, [r3]
 1257 0066 DBB2     		uxtb	r3, r3
 1258 0068 43F01003 		orr	r3, r3, #16
 1259 006c DBB2     		uxtb	r3, r3
ARM GAS  C:\Users\MONICA~1\AppData\Local\Temp\ccm12Pzq.s 			page 36


 1260 006e 1370     		strb	r3, [r2]
 732:.\Generated_Source\PSoC5/cyfitter_cfg.c **** 	}
 733:.\Generated_Source\PSoC5/cyfitter_cfg.c **** 
 734:.\Generated_Source\PSoC5/cyfitter_cfg.c **** 
 735:.\Generated_Source\PSoC5/cyfitter_cfg.c **** 	/* Perform second pass device configuration. These items must be configured in specific order afte
 736:.\Generated_Source\PSoC5/cyfitter_cfg.c **** 	CYCONFIGCPY((void CYFAR *)(CYREG_PRT0_DM0), (const void CYFAR *)(BS_IOPINS0_0_VAL), 8u);
 1261              		.loc 1 736 0
 1262 0070 1C48     		ldr	r0, .L68+28
 1263 0072 1D49     		ldr	r1, .L68+32
 1264 0074 0822     		movs	r2, #8
 1265 0076 FFF7FEFF 		bl	CYCONFIGCPY
 737:.\Generated_Source\PSoC5/cyfitter_cfg.c **** 	CYCONFIGCPY((void CYFAR *)(CYREG_PRT12_DM0), (const void CYFAR *)(BS_IOPINS0_7_VAL), 8u);
 1266              		.loc 1 737 0
 1267 007a 1C48     		ldr	r0, .L68+36
 1268 007c 1C49     		ldr	r1, .L68+40
 1269 007e 0822     		movs	r2, #8
 1270 0080 FFF7FEFF 		bl	CYCONFIGCPY
 738:.\Generated_Source\PSoC5/cyfitter_cfg.c **** 	CYCONFIGCPY((void CYFAR *)(CYREG_PRT15_DM0), (const void CYFAR *)(BS_IOPINS0_8_VAL), 8u);
 1271              		.loc 1 738 0
 1272 0084 1B48     		ldr	r0, .L68+44
 1273 0086 1C49     		ldr	r1, .L68+48
 1274 0088 0822     		movs	r2, #8
 1275 008a FFF7FEFF 		bl	CYCONFIGCPY
 739:.\Generated_Source\PSoC5/cyfitter_cfg.c **** 	CYCONFIGCPY((void CYFAR *)(CYREG_PRT2_DM0), (const void CYFAR *)(BS_IOPINS0_2_VAL), 8u);
 1276              		.loc 1 739 0
 1277 008e 1B48     		ldr	r0, .L68+52
 1278 0090 1B49     		ldr	r1, .L68+56
 1279 0092 0822     		movs	r2, #8
 1280 0094 FFF7FEFF 		bl	CYCONFIGCPY
 740:.\Generated_Source\PSoC5/cyfitter_cfg.c **** 	CYCONFIGCPY((void CYFAR *)(CYREG_PRT3_DM0), (const void CYFAR *)(BS_IOPINS0_3_VAL), 8u);
 1281              		.loc 1 740 0
 1282 0098 1A48     		ldr	r0, .L68+60
 1283 009a 1B49     		ldr	r1, .L68+64
 1284 009c 0822     		movs	r2, #8
 1285 009e FFF7FEFF 		bl	CYCONFIGCPY
 741:.\Generated_Source\PSoC5/cyfitter_cfg.c **** 	/* Switch Boost to the precision bandgap reference from its internal reference */
 742:.\Generated_Source\PSoC5/cyfitter_cfg.c **** 	CY_SET_REG8((void CYXDATA *)CYREG_BOOST_CR2, (CY_GET_REG8((void CYXDATA *)CYREG_BOOST_CR2) | 0x08u
 1286              		.loc 1 742 0
 1287 00a2 1A4A     		ldr	r2, .L68+68
 1288 00a4 194B     		ldr	r3, .L68+68
 1289 00a6 1B78     		ldrb	r3, [r3]
 1290 00a8 DBB2     		uxtb	r3, r3
 1291 00aa 43F00803 		orr	r3, r3, #8
 1292 00ae DBB2     		uxtb	r3, r3
 1293 00b0 1370     		strb	r3, [r2]
 743:.\Generated_Source\PSoC5/cyfitter_cfg.c **** 	CY_SET_XTND_REG8((void CYFAR *)(CYREG_PANTHER_WAITPIPE), 0x01u);
 1294              		.loc 1 743 0
 1295 00b2 174B     		ldr	r3, .L68+72
 1296 00b4 0122     		movs	r2, #1
 1297 00b6 1A70     		strb	r2, [r3]
 744:.\Generated_Source\PSoC5/cyfitter_cfg.c **** 
 745:.\Generated_Source\PSoC5/cyfitter_cfg.c **** 	/* Perform basic analog initialization to defaults */
 746:.\Generated_Source\PSoC5/cyfitter_cfg.c **** 	AnalogSetDefault();
 1298              		.loc 1 746 0
 1299 00b8 FFF7FEFF 		bl	AnalogSetDefault
 747:.\Generated_Source\PSoC5/cyfitter_cfg.c **** 
 748:.\Generated_Source\PSoC5/cyfitter_cfg.c **** 	/* Configure alternate active mode */
ARM GAS  C:\Users\MONICA~1\AppData\Local\Temp\ccm12Pzq.s 			page 37


 749:.\Generated_Source\PSoC5/cyfitter_cfg.c **** 	CYCONFIGCPY((void CYFAR *)CYDEV_PM_STBY_BASE, (const void CYFAR *)CYDEV_PM_ACT_BASE, 14u);
 1300              		.loc 1 749 0
 1301 00bc 1548     		ldr	r0, .L68+76
 1302 00be 0749     		ldr	r1, .L68+20
 1303 00c0 0E22     		movs	r2, #14
 1304 00c2 FFF7FEFF 		bl	CYCONFIGCPY
 750:.\Generated_Source\PSoC5/cyfitter_cfg.c **** }
 1305              		.loc 1 750 0
 1306 00c6 80BD     		pop	{r7, pc}
 1307              	.L69:
 1308              		.align	2
 1309              	.L68:
 1310 00c8 00480040 		.word	1073760256
 1311 00cc E8460040 		.word	1073759976
 1312 00d0 83580040 		.word	1073764483
 1313 00d4 03500140 		.word	1073827843
 1314 00d8 13500140 		.word	1073827859
 1315 00dc A0430040 		.word	1073759136
 1316 00e0 C2430040 		.word	1073759170
 1317 00e4 02510040 		.word	1073762562
 1318 00e8 900B0048 		.word	1207962512
 1319 00ec C2510040 		.word	1073762754
 1320 00f0 980B0048 		.word	1207962520
 1321 00f4 F2510040 		.word	1073762802
 1322 00f8 A00B0048 		.word	1207962528
 1323 00fc 22510040 		.word	1073762594
 1324 0100 A80B0048 		.word	1207962536
 1325 0104 32510040 		.word	1073762610
 1326 0108 B00B0048 		.word	1207962544
 1327 010c 22430040 		.word	1073759010
 1328 0110 04000840 		.word	1074266116
 1329 0114 B0430040 		.word	1073759152
 1330              		.cfi_endproc
 1331              	.LFE12:
 1332              		.size	cyfitter_cfg, .-cyfitter_cfg
 1333              		.bss
 1334              		.align	3
 1335              	DMA_ZERO_VAL.4858:
 1336 0000 00000000 		.space	4
 1337 0004 00000000 		.section	.dma_init,"a",%progbits
 1338              		.align	2
 1339              		.type	CFG_TD_LIST0.4859, %object
 1340              		.size	CFG_TD_LIST0.4859, 392
 1341              	CFG_TD_LIST0.4859:
 1342 0000 0800     		.short	8
 1343 0002 02       		.byte	2
 1344 0003 23       		.byte	35
 1345 0004 0000     		.short	0
 1346 0006 0876     		.short	30216
 1347 0008 0800     		.short	8
 1348 000a 03       		.byte	3
 1349 000b 23       		.byte	35
 1350 000c 0000     		.short	0
 1351 000e 1076     		.short	30224
 1352 0010 0800     		.short	8
 1353 0012 04       		.byte	4
 1354 0013 23       		.byte	35
ARM GAS  C:\Users\MONICA~1\AppData\Local\Temp\ccm12Pzq.s 			page 38


 1355 0014 0000     		.short	0
 1356 0016 2876     		.short	30248
 1357 0018 0800     		.short	8
 1358 001a 05       		.byte	5
 1359 001b 23       		.byte	35
 1360 001c 0000     		.short	0
 1361 001e 3076     		.short	30256
 1362 0020 0500     		.short	5
 1363 0022 06       		.byte	6
 1364 0023 23       		.byte	35
 1365 0024 0000     		.short	0
 1366 0026 2070     		.short	28704
 1367 0028 0500     		.short	5
 1368 002a 07       		.byte	7
 1369 002b 23       		.byte	35
 1370 002c 0000     		.short	0
 1371 002e 3070     		.short	28720
 1372 0030 0500     		.short	5
 1373 0032 08       		.byte	8
 1374 0033 23       		.byte	35
 1375 0034 0000     		.short	0
 1376 0036 6070     		.short	28768
 1377 0038 0500     		.short	5
 1378 003a FE       		.byte	-2
 1379 003b 23       		.byte	35
 1380 003c 0000     		.short	0
 1381 003e 7070     		.short	28784
 1382 0040 1900     		.short	25
 1383 0042 0A       		.byte	10
 1384 0043 22       		.byte	34
 1385 0044 0000     		.short	0
 1386 0046 C849     		.short	18888
 1387 0048 1000     		.short	16
 1388 004a 0B       		.byte	11
 1389 004b 22       		.byte	34
 1390 004c 0000     		.short	0
 1391 004e 1051     		.short	20752
 1392 0050 3000     		.short	48
 1393 0052 FE       		.byte	-2
 1394 0053 22       		.byte	34
 1395 0054 0000     		.short	0
 1396 0056 4051     		.short	20800
 1397 0058 8009     		.short	2432
 1398 005a 0D       		.byte	13
 1399 005b 22       		.byte	34
 1400 005c 0000     		.short	0
 1401 005e 0000     		.short	0
 1402 0060 8000     		.short	128
 1403 0062 0E       		.byte	14
 1404 0063 22       		.byte	34
 1405 0064 0000     		.short	0
 1406 0066 000A     		.short	2560
 1407 0068 8004     		.short	1152
 1408 006a 0F       		.byte	15
 1409 006b 22       		.byte	34
 1410 006c 0000     		.short	0
 1411 006e 800B     		.short	2944
ARM GAS  C:\Users\MONICA~1\AppData\Local\Temp\ccm12Pzq.s 			page 39


 1412 0070 8001     		.short	384
 1413 0072 10       		.byte	16
 1414 0073 22       		.byte	34
 1415 0074 0000     		.short	0
 1416 0076 0014     		.short	5120
 1417 0078 8001     		.short	384
 1418 007a 11       		.byte	17
 1419 007b 22       		.byte	34
 1420 007c 0000     		.short	0
 1421 007e 0016     		.short	5632
 1422 0080 8001     		.short	384
 1423 0082 12       		.byte	18
 1424 0083 22       		.byte	34
 1425 0084 0000     		.short	0
 1426 0086 0018     		.short	6144
 1427 0088 8001     		.short	384
 1428 008a 13       		.byte	19
 1429 008b 22       		.byte	34
 1430 008c 0000     		.short	0
 1431 008e 001A     		.short	6656
 1432 0090 0002     		.short	512
 1433 0092 14       		.byte	20
 1434 0093 22       		.byte	34
 1435 0094 0000     		.short	0
 1436 0096 0040     		.short	16384
 1437 0098 8000     		.short	128
 1438 009a 15       		.byte	21
 1439 009b 22       		.byte	34
 1440 009c 0000     		.short	0
 1441 009e 0043     		.short	17152
 1442 00a0 8000     		.short	128
 1443 00a2 16       		.byte	22
 1444 00a3 22       		.byte	34
 1445 00a4 0000     		.short	0
 1446 00a6 0045     		.short	17664
 1447 00a8 8000     		.short	128
 1448 00aa 17       		.byte	23
 1449 00ab 22       		.byte	34
 1450 00ac 0000     		.short	0
 1451 00ae 0047     		.short	18176
 1452 00b0 8000     		.short	128
 1453 00b2 18       		.byte	24
 1454 00b3 22       		.byte	34
 1455 00b4 0000     		.short	0
 1456 00b6 004D     		.short	19712
 1457 00b8 2000     		.short	32
 1458 00ba FE       		.byte	-2
 1459 00bb 22       		.byte	34
 1460 00bc 0000     		.short	0
 1461 00be 0050     		.short	20480
 1462 00c0 0600     		.short	6
 1463 00c2 FE       		.byte	-2
 1464 00c3 23       		.byte	35
 1465 00c4 0000     		.short	0
 1466 00c6 6052     		.short	21088
 1467 00c8 0800     		.short	8
 1468 00ca 1B       		.byte	27
ARM GAS  C:\Users\MONICA~1\AppData\Local\Temp\ccm12Pzq.s 			page 40


 1469 00cb 23       		.byte	35
 1470 00cc 0000     		.short	0
 1471 00ce 0051     		.short	20736
 1472 00d0 8000     		.short	128
 1473 00d2 1C       		.byte	28
 1474 00d3 23       		.byte	35
 1475 00d4 0000     		.short	0
 1476 00d6 800A     		.short	2688
 1477 00d8 8000     		.short	128
 1478 00da 1D       		.byte	29
 1479 00db 23       		.byte	35
 1480 00dc 0000     		.short	0
 1481 00de 804D     		.short	19840
 1482 00e0 8000     		.short	128
 1483 00e2 1E       		.byte	30
 1484 00e3 23       		.byte	35
 1485 00e4 0000     		.short	0
 1486 00e6 004C     		.short	19456
 1487 00e8 8000     		.short	128
 1488 00ea 1F       		.byte	31
 1489 00eb 23       		.byte	35
 1490 00ec 0000     		.short	0
 1491 00ee 804C     		.short	19584
 1492 00f0 8000     		.short	128
 1493 00f2 20       		.byte	32
 1494 00f3 23       		.byte	35
 1495 00f4 0000     		.short	0
 1496 00f6 8047     		.short	18304
 1497 00f8 8000     		.short	128
 1498 00fa 21       		.byte	33
 1499 00fb 23       		.byte	35
 1500 00fc 0000     		.short	0
 1501 00fe 0046     		.short	17920
 1502 0100 8000     		.short	128
 1503 0102 22       		.byte	34
 1504 0103 23       		.byte	35
 1505 0104 0000     		.short	0
 1506 0106 8046     		.short	18048
 1507 0108 8000     		.short	128
 1508 010a 23       		.byte	35
 1509 010b 23       		.byte	35
 1510 010c 0000     		.short	0
 1511 010e 8045     		.short	17792
 1512 0110 8000     		.short	128
 1513 0112 24       		.byte	36
 1514 0113 23       		.byte	35
 1515 0114 0000     		.short	0
 1516 0116 0044     		.short	17408
 1517 0118 8000     		.short	128
 1518 011a 25       		.byte	37
 1519 011b 23       		.byte	35
 1520 011c 0000     		.short	0
 1521 011e 8044     		.short	17536
 1522 0120 8000     		.short	128
 1523 0122 26       		.byte	38
 1524 0123 23       		.byte	35
 1525 0124 0000     		.short	0
ARM GAS  C:\Users\MONICA~1\AppData\Local\Temp\ccm12Pzq.s 			page 41


 1526 0126 801B     		.short	7040
 1527 0128 8000     		.short	128
 1528 012a 27       		.byte	39
 1529 012b 23       		.byte	35
 1530 012c 0000     		.short	0
 1531 012e 8015     		.short	5504
 1532 0130 8000     		.short	128
 1533 0132 28       		.byte	40
 1534 0133 23       		.byte	35
 1535 0134 0000     		.short	0
 1536 0136 8019     		.short	6528
 1537 0138 8000     		.short	128
 1538 013a 29       		.byte	41
 1539 013b 23       		.byte	35
 1540 013c 0000     		.short	0
 1541 013e 8017     		.short	6016
 1542 0140 8000     		.short	128
 1543 0142 2A       		.byte	42
 1544 0143 23       		.byte	35
 1545 0144 0000     		.short	0
 1546 0146 8009     		.short	2432
 1547 0148 8000     		.short	128
 1548 014a 2B       		.byte	43
 1549 014b 23       		.byte	35
 1550 014c 0000     		.short	0
 1551 014e 000B     		.short	2816
 1552 0150 8000     		.short	128
 1553 0152 2C       		.byte	44
 1554 0153 23       		.byte	35
 1555 0154 0000     		.short	0
 1556 0156 0049     		.short	18688
 1557 0158 8000     		.short	128
 1558 015a 2D       		.byte	45
 1559 015b 23       		.byte	35
 1560 015c 0000     		.short	0
 1561 015e 8049     		.short	18816
 1562 0160 8000     		.short	128
 1563 0162 2E       		.byte	46
 1564 0163 23       		.byte	35
 1565 0164 0000     		.short	0
 1566 0166 0048     		.short	18432
 1567 0168 8000     		.short	128
 1568 016a 2F       		.byte	47
 1569 016b 23       		.byte	35
 1570 016c 0000     		.short	0
 1571 016e 8048     		.short	18560
 1572 0170 8000     		.short	128
 1573 0172 30       		.byte	48
 1574 0173 23       		.byte	35
 1575 0174 0000     		.short	0
 1576 0176 8043     		.short	17280
 1577 0178 8000     		.short	128
 1578 017a 31       		.byte	49
 1579 017b 23       		.byte	35
 1580 017c 0000     		.short	0
 1581 017e 0042     		.short	16896
 1582 0180 8000     		.short	128
ARM GAS  C:\Users\MONICA~1\AppData\Local\Temp\ccm12Pzq.s 			page 42


 1583 0182 FE       		.byte	-2
 1584 0183 23       		.byte	35
 1585 0184 0000     		.short	0
 1586 0186 8042     		.short	17024
 1587              		.section	.rodata
 1588              		.align	2
 1589              		.type	CFG_TD_ADDR0.4860, %object
 1590              		.size	CFG_TD_ADDR0.4860, 196
 1591              	CFG_TD_ADDR0.4860:
 1592 0000 A8010000 		.word	CH1_ADDR_DATA0.4853
 1593 0004 A0010000 		.word	CH2_ADDR_DATA0.4854
 1594 0008 98010000 		.word	CH5_ADDR_DATA0.4855
 1595 000c 90010000 		.word	CH6_ADDR_DATA0.4856
 1596 0010 88010000 		.word	DMA_TD_START_CMD.4857
 1597 0014 88010000 		.word	DMA_TD_START_CMD.4857
 1598 0018 88010000 		.word	DMA_TD_START_CMD.4857
 1599 001c 88010000 		.word	DMA_TD_START_CMD.4857
 1600 0020 00000000 		.word	DMA_ZERO_VAL.4858
 1601 0024 00000000 		.word	DMA_ZERO_VAL.4858
 1602 0028 00000000 		.word	DMA_ZERO_VAL.4858
 1603 002c 00000000 		.word	DMA_ZERO_VAL.4858
 1604 0030 00000000 		.word	DMA_ZERO_VAL.4858
 1605 0034 00000000 		.word	DMA_ZERO_VAL.4858
 1606 0038 00000000 		.word	DMA_ZERO_VAL.4858
 1607 003c 00000000 		.word	DMA_ZERO_VAL.4858
 1608 0040 00000000 		.word	DMA_ZERO_VAL.4858
 1609 0044 00000000 		.word	DMA_ZERO_VAL.4858
 1610 0048 00000000 		.word	DMA_ZERO_VAL.4858
 1611 004c 00000000 		.word	DMA_ZERO_VAL.4858
 1612 0050 00000000 		.word	DMA_ZERO_VAL.4858
 1613 0054 00000000 		.word	DMA_ZERO_VAL.4858
 1614 0058 00000000 		.word	DMA_ZERO_VAL.4858
 1615 005c 00000000 		.word	DMA_ZERO_VAL.4858
 1616 0060 00000048 		.word	1207959552
 1617 0064 08000048 		.word	1207959560
 1618 0068 10000048 		.word	1207959568
 1619 006c 90000048 		.word	1207959696
 1620 0070 10010048 		.word	1207959824
 1621 0074 90010048 		.word	1207959952
 1622 0078 10020048 		.word	1207960080
 1623 007c 90020048 		.word	1207960208
 1624 0080 10030048 		.word	1207960336
 1625 0084 90030048 		.word	1207960464
 1626 0088 10040048 		.word	1207960592
 1627 008c 90040048 		.word	1207960720
 1628 0090 10050048 		.word	1207960848
 1629 0094 90050048 		.word	1207960976
 1630 0098 10060048 		.word	1207961104
 1631 009c 90060048 		.word	1207961232
 1632 00a0 10070048 		.word	1207961360
 1633 00a4 90070048 		.word	1207961488
 1634 00a8 10080048 		.word	1207961616
 1635 00ac 90080048 		.word	1207961744
 1636 00b0 10090048 		.word	1207961872
 1637 00b4 90090048 		.word	1207962000
 1638 00b8 100A0048 		.word	1207962128
 1639 00bc 900A0048 		.word	1207962256
ARM GAS  C:\Users\MONICA~1\AppData\Local\Temp\ccm12Pzq.s 			page 43


 1640 00c0 100B0048 		.word	1207962384
 1641              		.section	.dma_init
 1642              		.align	2
 1643              		.type	DMA_TD_START_CMD.4857, %object
 1644              		.size	DMA_TD_START_CMD.4857, 5
 1645              	DMA_TD_START_CMD.4857:
 1646 0188 01       		.byte	1
 1647 0189 00       		.byte	0
 1648 018a 00       		.byte	0
 1649 018b 00       		.byte	0
 1650 018c 01       		.byte	1
 1651 018d 000000   		.align	2
 1652              		.type	CH6_ADDR_DATA0.4856, %object
 1653              		.size	CH6_ADDR_DATA0.4856, 8
 1654              	CH6_ADDR_DATA0.4856:
 1655 0190 01       		.byte	1
 1656 0191 00       		.byte	0
 1657 0192 00       		.byte	0
 1658 0193 00       		.byte	0
 1659 0194 00       		.byte	0
 1660 0195 48       		.byte	72
 1661 0196 01       		.byte	1
 1662 0197 40       		.byte	64
 1663              		.align	2
 1664              		.type	CH5_ADDR_DATA0.4855, %object
 1665              		.size	CH5_ADDR_DATA0.4855, 8
 1666              	CH5_ADDR_DATA0.4855:
 1667 0198 01       		.byte	1
 1668 0199 00       		.byte	0
 1669 019a 00       		.byte	0
 1670 019b 00       		.byte	0
 1671 019c 00       		.byte	0
 1672 019d 48       		.byte	72
 1673 019e 00       		.byte	0
 1674 019f 40       		.byte	64
 1675              		.align	2
 1676              		.type	CH2_ADDR_DATA0.4854, %object
 1677              		.size	CH2_ADDR_DATA0.4854, 8
 1678              	CH2_ADDR_DATA0.4854:
 1679 01a0 01       		.byte	1
 1680 01a1 00       		.byte	0
 1681 01a2 00       		.byte	0
 1682 01a3 00       		.byte	0
 1683 01a4 00       		.byte	0
 1684 01a5 20       		.byte	32
 1685 01a6 01       		.byte	1
 1686 01a7 40       		.byte	64
 1687              		.align	2
 1688              		.type	CH1_ADDR_DATA0.4853, %object
 1689              		.size	CH1_ADDR_DATA0.4853, 8
 1690              	CH1_ADDR_DATA0.4853:
 1691 01a8 01       		.byte	1
 1692 01a9 00       		.byte	0
 1693 01aa 00       		.byte	0
 1694 01ab 00       		.byte	0
 1695 01ac 00       		.byte	0
 1696 01ad 20       		.byte	32
ARM GAS  C:\Users\MONICA~1\AppData\Local\Temp\ccm12Pzq.s 			page 44


 1697 01ae 00       		.byte	0
 1698 01af 40       		.byte	64
 1699              		.text
 1700              	.Letext0:
 1701              		.file 2 "c:\\program files (x86)\\cypress\\psoc creator\\3.3\\psoc creator\\import\\gnu\\arm\\4.9.
 1702              		.file 3 ".\\Generated_Source\\PSoC5\\cytypes.h"