ARM GAS  C:\Users\MONICA~1\AppData\Local\Temp\ccZFUxSb.s 			page 1


   1              		.syntax unified
   2              		.cpu cortex-m3
   3              		.fpu softvfp
   4              		.eabi_attribute 20, 1
   5              		.eabi_attribute 21, 1
   6              		.eabi_attribute 23, 3
   7              		.eabi_attribute 24, 1
   8              		.eabi_attribute 25, 1
   9              		.eabi_attribute 26, 1
  10              		.eabi_attribute 30, 6
  11              		.eabi_attribute 34, 1
  12              		.eabi_attribute 18, 4
  13              		.thumb
  14              		.file	"main.c"
  15              		.text
  16              	.Ltext0:
  17              		.cfi_sections	.debug_frame
  18              		.section	.text.main,"ax",%progbits
  19              		.align	2
  20              		.global	main
  21              		.thumb
  22              		.thumb_func
  23              		.type	main, %function
  24              	main:
  25              	.LFB63:
  26              		.file 1 ".\\main.c"
   1:.\main.c      **** /*******************************************************************************
   2:.\main.c      **** * File Name: main.c
   3:.\main.c      **** *
   4:.\main.c      **** * Version: 1.0
   5:.\main.c      **** *
   6:.\main.c      **** * Description:
   7:.\main.c      **** *  This is source code for Example Project: 8-ch DelSig ADC with I2C Master.
   8:.\main.c      **** *
   9:.\main.c      **** * Parameters used:
  10:.\main.c      **** *  I2C Master
  11:.\main.c      **** *   Implementation        Fixed function
  12:.\main.c      **** *   Data rate            100kbps
  13:.\main.c      **** *   SDA SCL pin config  Open drain, drives low
  14:.\main.c      **** *   Pull-up resistors    2.67k each
  15:.\main.c      **** *
  16:.\main.c      **** *  Delta Sigma ADC
  17:.\main.c      **** *      Conversion mode     1-Multi Sample
  18:.\main.c      **** *    Resolution            16 bits
  19:.\main.c      **** *    Conversion Rate        5000 SPS
  20:.\main.c      **** *    Input mode            Differential
  21:.\main.c      **** *
  22:.\main.c      **** *  IDAC
  23:.\main.c      **** *    Polarity            Positive
  24:.\main.c      **** *    Range                0-31.875 uA
  25:.\main.c      **** *    Speed                Slow
  26:.\main.c      **** *    Current output        10 uA
  27:.\main.c      **** *
  28:.\main.c      **** *  Sequencing Max
  29:.\main.c      **** *    Mux type            Differential
  30:.\main.c      **** *    Channels            8
  31:.\main.c      **** *
ARM GAS  C:\Users\MONICA~1\AppData\Local\Temp\ccZFUxSb.s 			page 2


  32:.\main.c      **** * In this project, data converted by the 8-channel, sequenced ADC is sent via
  33:.\main.c      **** * a I2C Master. The project is tested with a separate project containing a I2C
  34:.\main.c      **** * slave. The data output by the ADC is made visible on an Character LCD. This
  35:.\main.c      **** * can be used to verify the data received by the I2C slave which is also
  36:.\main.c      **** * displayed on an LCD screen.
  37:.\main.c      **** *
  38:.\main.c      **** ********************************************************************************
  39:.\main.c      **** * Copyright 2012, Cypress Semiconductor Corporation. All rights reserved.
  40:.\main.c      **** * This software is owned by Cypress Semiconductor Corporation and is protected
  41:.\main.c      **** * by and subject to worldwide patent and copyright laws and treaties.
  42:.\main.c      **** * Therefore, you may use this software only as provided in the license agreement
  43:.\main.c      **** * accompanying the software package from which you obtained this software.
  44:.\main.c      **** * CYPRESS AND ITS SUPPLIERS MAKE NO WARRANTY OF ANY KIND, EXPRESS OR IMPLIED,
  45:.\main.c      **** * WITH REGARD TO THIS SOFTWARE, INCLUDING, BUT NOT LIMITED TO, NONINFRINGEMENT,
  46:.\main.c      **** * IMPLIED WARRANTIES OF MERCHANTABILITY AND FITNESS FOR A PARTICULAR PURPOSE.
  47:.\main.c      **** *******************************************************************************/
  48:.\main.c      **** 
  49:.\main.c      **** #include <device.h>
  50:.\main.c      **** 
  51:.\main.c      **** /* The I2C Slave address by default in a PSoC device is 8 */
  52:.\main.c      **** #define I2C_SLAVE_ADDRESS    (8u)
  53:.\main.c      **** /* Set the write buffer length to be 16 bits or 2 bytes */
  54:.\main.c      **** #define WR_BUFFER_SIZE       (2u)
  55:.\main.c      **** 
  56:.\main.c      **** 
  57:.\main.c      **** /*******************************************************************************
  58:.\main.c      **** * Function Name: main
  59:.\main.c      **** ********************************************************************************
  60:.\main.c      **** *
  61:.\main.c      **** * Summary:
  62:.\main.c      **** *  main function performs following functions:
  63:.\main.c      **** *   1. Starts all used components.
  64:.\main.c      **** *   2. Controls sequencing of ADC inputs.
  65:.\main.c      **** *   3. Reads ADC converted data, sends this data via a I2C Master.
  66:.\main.c      **** *   4. Displays ADC converted data on Character LCD.
  67:.\main.c      **** *
  68:.\main.c      **** * Parameters:
  69:.\main.c      **** *  None.
  70:.\main.c      **** *
  71:.\main.c      **** * Return:
  72:.\main.c      **** *  None.
  73:.\main.c      **** *
  74:.\main.c      **** *******************************************************************************/
  75:.\main.c      **** int main()
  76:.\main.c      **** {
  27              		.loc 1 76 0
  28              		.cfi_startproc
  29              		@ args = 0, pretend = 0, frame = 8
  30              		@ frame_needed = 1, uses_anonymous_args = 0
  31 0000 80B5     		push	{r7, lr}
  32              		.cfi_def_cfa_offset 8
  33              		.cfi_offset 7, -8
  34              		.cfi_offset 14, -4
  35 0002 82B0     		sub	sp, sp, #8
  36              		.cfi_def_cfa_offset 16
  37 0004 00AF     		add	r7, sp, #0
  38              		.cfi_def_cfa_register 7
ARM GAS  C:\Users\MONICA~1\AppData\Local\Temp\ccZFUxSb.s 			page 3


  77:.\main.c      ****     uint8 temp;
  78:.\main.c      ****     uint8 sample_segment[WR_BUFFER_SIZE];
  79:.\main.c      ****     uint8 sample_full;
  80:.\main.c      **** 
  81:.\main.c      ****     I2CM_Start();
  39              		.loc 1 81 0
  40 0006 FFF7FEFF 		bl	I2CM_Start
  82:.\main.c      ****   //  IDAC8_Start();
  83:.\main.c      **** 
  84:.\main.c      ****     /* The Start API for Mux sets it up, but disconnects all the channels.
  85:.\main.c      ****      * To connect the first channel, call the 'AMuxSeq_Next' function.
  86:.\main.c      ****      */
  87:.\main.c      ****    // AMuxSeq_Start();
  88:.\main.c      ****   //  AMuxSeq_Next();
  89:.\main.c      **** 
  90:.\main.c      ****     /* The LCD will display the values read from ADC in hex */
  91:.\main.c      ****   //  LCD_Char_Start();
  92:.\main.c      ****   //  LCD_Char_PrintString("0x");
  93:.\main.c      **** 
  94:.\main.c      ****   //  ADC_DelSig_Start();
  95:.\main.c      ****   //  ADC_DelSig_StartConvert();
  96:.\main.c      **** 
  97:.\main.c      ****     /* Enable global interrupts - required for I2C */
  98:.\main.c      ****     CyGlobalIntEnable;
  41              		.loc 1 98 0
  42              	@ 98 ".\main.c" 1
  43 000a 62B6     		CPSIE   i
  44              	@ 0 "" 2
  45              		.thumb
  46              	.L4:
  99:.\main.c      **** 
 100:.\main.c      ****     for(;;)
 101:.\main.c      ****     { 
 102:.\main.c      ****       //  ADC_DelSig_StartConvert();
 103:.\main.c      ****         /* Wait until the ADC conversion is complete */
 104:.\main.c      ****       //  ADC_DelSig_IsEndConversion(ADC_DelSig_WAIT_FOR_RESULT);
 105:.\main.c      ****         /* Since the ADC conversion is complete, stop the conversion */
 106:.\main.c      ****      //   ADC_DelSig_StopConvert();
 107:.\main.c      ****         sample_full = 22;
  47              		.loc 1 107 0
  48 000c 1623     		movs	r3, #22
  49 000e FB71     		strb	r3, [r7, #7]
 108:.\main.c      ****        // AMuxSeq_Next();
 109:.\main.c      ****         sample_segment[0] = sample_full;
  50              		.loc 1 109 0
  51 0010 FB79     		ldrb	r3, [r7, #7]
  52 0012 3B71     		strb	r3, [r7, #4]
  53              	.L2:
 110:.\main.c      ****        // sample_segment[1] = sample_full & 0x00FFu;
 111:.\main.c      **** 
 112:.\main.c      ****         /* Attempt to initiate communication with the slave until the function
 113:.\main.c      ****          * completes without error.
 114:.\main.c      ****          */
 115:.\main.c      ****         do
 116:.\main.c      ****         {
 117:.\main.c      ****             /* The syntax below automatically writes a buffer of data to a slave
 118:.\main.c      ****              * device from start to stop.
ARM GAS  C:\Users\MONICA~1\AppData\Local\Temp\ccZFUxSb.s 			page 4


 119:.\main.c      ****               */
 120:.\main.c      ****             temp = I2CM_MasterWriteBuf(I2C_SLAVE_ADDRESS, (uint8 *)sample_segment,
  54              		.loc 1 120 0 discriminator 1
  55 0014 3B1D     		adds	r3, r7, #4
  56 0016 0820     		movs	r0, #8
  57 0018 1946     		mov	r1, r3
  58 001a 0222     		movs	r2, #2
  59 001c 0023     		movs	r3, #0
  60 001e FFF7FEFF 		bl	I2CM_MasterWriteBuf
  61 0022 0346     		mov	r3, r0
  62 0024 BB71     		strb	r3, [r7, #6]
 121:.\main.c      ****                                         WR_BUFFER_SIZE, I2CM_MODE_COMPLETE_XFER);
 122:.\main.c      ****         }
 123:.\main.c      ****         while (temp != I2CM_MSTR_NO_ERROR);
  63              		.loc 1 123 0 discriminator 1
  64 0026 BB79     		ldrb	r3, [r7, #6]	@ zero_extendqisi2
  65 0028 002B     		cmp	r3, #0
  66 002a F3D1     		bne	.L2
 124:.\main.c      **** 
 125:.\main.c      ****         /* Wait for the data transfer to complete */
 126:.\main.c      ****         while(I2CM_MasterStatus() & I2CM_MSTAT_XFER_INP);
  67              		.loc 1 126 0
  68 002c 00BF     		nop
  69              	.L3:
  70              		.loc 1 126 0 is_stmt 0 discriminator 1
  71 002e FFF7FEFF 		bl	I2CM_MasterStatus
  72 0032 0346     		mov	r3, r0
  73 0034 03F00403 		and	r3, r3, #4
  74 0038 002B     		cmp	r3, #0
  75 003a F8D1     		bne	.L3
 127:.\main.c      **** 
 128:.\main.c      ****         temp = I2CM_MasterClearStatus();
  76              		.loc 1 128 0 is_stmt 1
  77 003c FFF7FEFF 		bl	I2CM_MasterClearStatus
  78 0040 0346     		mov	r3, r0
  79 0042 BB71     		strb	r3, [r7, #6]
 129:.\main.c      **** 
 130:.\main.c      ****       ///  LCD_Char_ClearDisplay();
 131:.\main.c      **** 
 132:.\main.c      ****         /* If there is an error while transferring data */
 133:.\main.c      ****         if(temp & I2CM_MSTAT_ERR_XFER)
 134:.\main.c      ****         {
 135:.\main.c      ****             /* Indicate the error */
 136:.\main.c      ****          //   LCD_Char_PrintString("I2C Error! ");
 137:.\main.c      ****             /* Place error handling code here */
 138:.\main.c      ****         }
 139:.\main.c      ****         else /* Write completed without error */
 140:.\main.c      ****         {
 141:.\main.c      ****             /* For verification purposes, display the adcReading on the LCD */
 142:.\main.c      ****         //    LCD_Char_PrintString("0x");
 143:.\main.c      ****           //  LCD_Char_PrintInt16(sample_full);
 144:.\main.c      ****         }
 145:.\main.c      **** 
 146:.\main.c      ****         /* Delay introduced for ease of reading LCD */
 147:.\main.c      ****         CyDelay(2000u/*ms*/);
  80              		.loc 1 147 0
  81 0044 4FF4FA60 		mov	r0, #2000
ARM GAS  C:\Users\MONICA~1\AppData\Local\Temp\ccZFUxSb.s 			page 5


  82 0048 FFF7FEFF 		bl	CyDelay
 148:.\main.c      **** 
 149:.\main.c      ****     }  
  83              		.loc 1 149 0
  84 004c DEE7     		b	.L4
  85              		.cfi_endproc
  86              	.LFE63:
  87              		.size	main, .-main
  88 004e 00BF     		.text
  89              	.Letext0:
  90              		.file 2 "c:\\program files (x86)\\cypress\\psoc creator\\3.3\\psoc creator\\import\\gnu\\arm\\4.9.
  91              		.file 3 "c:\\program files (x86)\\cypress\\psoc creator\\3.3\\psoc creator\\import\\gnu\\arm\\4.9.
  92              		.file 4 "Generated_Source\\PSoC5/cytypes.h"
  93              		.file 5 "Generated_Source\\PSoC5/core_cm3.h"