ARM GAS  C:\Users\MONICA~1\AppData\Local\Temp\ccMhgwSS.s 			page 1


   1              		.syntax unified
   2              		.cpu cortex-m3
   3              		.fpu softvfp
   4              		.eabi_attribute 20, 1
   5              		.eabi_attribute 21, 1
   6              		.eabi_attribute 23, 3
   7              		.eabi_attribute 24, 1
   8              		.eabi_attribute 25, 1
   9              		.eabi_attribute 26, 1
  10              		.eabi_attribute 30, 6
  11              		.eabi_attribute 34, 1
  12              		.eabi_attribute 18, 4
  13              		.thumb
  14              		.file	"main.c"
  15              		.text
  16              	.Ltext0:
  17              		.cfi_sections	.debug_frame
  18              		.section	.rodata
  19              		.align	2
  20              	.LC0:
  21 0000 434F4D20 		.ascii	"COM Port Open\000"
  21      506F7274 
  21      204F7065 
  21      6E00
  22 000e 0000     		.align	2
  23              	.LC1:
  24 0010 53616D70 		.ascii	"Sample: %lu mV\015\012\000"
  24      6C653A20 
  24      256C7520 
  24      6D560D0A 
  24      00
  25              		.global	__aeabi_i2f
  26 0021 000000   		.align	2
  27              	.LC2:
  28 0024 456D756C 		.ascii	"Emulated Data: %x \015\012\000"
  28      61746564 
  28      20446174 
  28      613A2025 
  28      78200D0A 
  29              		.global	__aeabi_fmul
  30              		.global	__aeabi_f2iz
  31              		.global	__aeabi_i2d
  32              		.global	__aeabi_d2iz
  33 0039 000000   		.align	2
  34              	.LC3:
  35 003c 706F7765 		.ascii	"power : %d\015\012\000"
  35      72203A20 
  35      25640D0A 
  35      00
  36 0049 000000   		.section	.text.main,"ax",%progbits
  37              		.align	2
  38              		.global	main
  39              		.thumb
  40              		.thumb_func
  41              		.type	main, %function
  42              	main:
  43              	.LFB63:
ARM GAS  C:\Users\MONICA~1\AppData\Local\Temp\ccMhgwSS.s 			page 2


  44              		.file 1 ".\\main.c"
   1:.\main.c      **** /******************************************************************************
   2:.\main.c      **** * Project Name		: CE95277 ADC and UART
   3:.\main.c      **** * File Name			: main.c
   4:.\main.c      **** * Version 			: **
   5:.\main.c      **** * Device Used		: CY8C5888LTI-LP097
   6:.\main.c      **** * Software Used		: PSoC Creator 3.1 SP2
   7:.\main.c      **** * Compiler    		: ARM GCC 4.8.4, ARM RVDS Generic, ARM MDK Generic
   8:.\main.c      **** * Related Hardware	: CY8CKIT059 PSoC 5 LP Prototyping Kit 
   9:.\main.c      **** * Owner				: KLMZ
  10:.\main.c      **** *
  11:.\main.c      **** ********************************************************************************
  12:.\main.c      **** * Copyright (2015), Cypress Semiconductor Corporation. All Rights Reserved.
  13:.\main.c      **** ********************************************************************************
  14:.\main.c      **** * This software is owned by Cypress Semiconductor Corporation (Cypress)
  15:.\main.c      **** * and is protected by and subject to worldwide patent protection (United
  16:.\main.c      **** * States and foreign), United States copyright laws and international treaty
  17:.\main.c      **** * provisions. Cypress hereby grants to licensee a personal, non-exclusive,
  18:.\main.c      **** * non-transferable license to copy, use, modify, create derivative works of,
  19:.\main.c      **** * and compile the Cypress Source Code and derivative works for the sole
  20:.\main.c      **** * purpose of creating custom software in support of licensee product to be
  21:.\main.c      **** * used only in conjunction with a Cypress integrated circuit as specified in
  22:.\main.c      **** * the applicable agreement. Any reproduction, modification, translation,
  23:.\main.c      **** * compilation, or representation of this software except as specified above 
  24:.\main.c      **** * is prohibited without the express written permission of Cypress.
  25:.\main.c      **** *
  26:.\main.c      **** * Disclaimer: CYPRESS MAKES NO WARRANTY OF ANY KIND, EXPRESS OR IMPLIED, WITH 
  27:.\main.c      **** * REGARD TO THIS MATERIAL, INCLUDING, BUT NOT LIMITED TO, THE IMPLIED 
  28:.\main.c      **** * WARRANTIES OF MERCHANTABILITY AND FITNESS FOR A PARTICULAR PURPOSE.
  29:.\main.c      **** * Cypress reserves the right to make changes without further notice to the 
  30:.\main.c      **** * materials described herein. Cypress does not assume any liability arising out 
  31:.\main.c      **** * of the application or use of any product or circuit described herein. Cypress 
  32:.\main.c      **** * does not authorize its products for use as critical components in life-support 
  33:.\main.c      **** * systems where a malfunction or failure may reasonably be expected to result in 
  34:.\main.c      **** * significant injury to the user. The inclusion of Cypress' product in a life-
  35:.\main.c      **** * support systems application implies that the manufacturer assumes all risk of 
  36:.\main.c      **** * such use and in doing so indemnifies Cypress against all charges. 
  37:.\main.c      **** *
  38:.\main.c      **** * Use of this Software may be limited by and subject to the applicable Cypress
  39:.\main.c      **** * software license agreement. 
  40:.\main.c      **** *******************************************************************************/
  41:.\main.c      **** 
  42:.\main.c      **** #include <device.h>
  43:.\main.c      **** #include "stdio.h"
  44:.\main.c      **** #include "math.h"
  45:.\main.c      **** 
  46:.\main.c      **** /* Project Defines */
  47:.\main.c      **** #define FALSE  0
  48:.\main.c      **** #define TRUE   1
  49:.\main.c      **** #define TRANSMIT_BUFFER_SIZE  32
  50:.\main.c      **** 
  51:.\main.c      **** 
  52:.\main.c      **** /*******************************************************************************
  53:.\main.c      **** * Function Name: main
  54:.\main.c      **** ********************************************************************************
  55:.\main.c      **** *
  56:.\main.c      **** * Summary:
ARM GAS  C:\Users\MONICA~1\AppData\Local\Temp\ccMhgwSS.s 			page 3


  57:.\main.c      **** *  main() performs following functions:
  58:.\main.c      **** *  1: Starts the ADC and UART components.
  59:.\main.c      **** *  2: Checks for ADC end of conversion.  Stores latest result in output
  60:.\main.c      **** *     if conversion complete.
  61:.\main.c      **** *  3: Checks for UART input.
  62:.\main.c      **** *     On 'C' or 'c' received: transmits the last sample via the UART.
  63:.\main.c      **** *     On 'S' or 's' received: continuously transmits samples as they are completed.
  64:.\main.c      **** *     On 'X' or 'x' received: stops continuously transmitting samples.
  65:.\main.c      **** *     On 'E' or 'e' received: transmits a dummy byte of data.
  66:.\main.c      **** *
  67:.\main.c      **** * Parameters:
  68:.\main.c      **** *  None.
  69:.\main.c      **** *
  70:.\main.c      **** * Return:
  71:.\main.c      **** *  None.
  72:.\main.c      **** *
  73:.\main.c      **** *******************************************************************************/
  74:.\main.c      **** int main()
  75:.\main.c      **** {
  45              		.loc 1 75 0
  46              		.cfi_startproc
  47              		@ args = 0, pretend = 0, frame = 144
  48              		@ frame_needed = 1, uses_anonymous_args = 0
  49 0000 80B5     		push	{r7, lr}
  50              		.cfi_def_cfa_offset 8
  51              		.cfi_offset 7, -8
  52              		.cfi_offset 14, -4
  53 0002 A4B0     		sub	sp, sp, #144
  54              		.cfi_def_cfa_offset 152
  55 0004 00AF     		add	r7, sp, #0
  56              		.cfi_def_cfa_register 7
  76:.\main.c      ****     /* Variable to store ADC result */
  77:.\main.c      ****     int32 Output;
  78:.\main.c      ****     /* Variable to store UART received character */
  79:.\main.c      ****     uint8 Ch;
  80:.\main.c      ****     /* Variable used to send emulated data */
  81:.\main.c      ****     uint8 EmulatedData;
  82:.\main.c      ****     /* Flags used to store transmit data commands */
  83:.\main.c      ****     uint8 ContinuouslySendData;
  84:.\main.c      ****     uint8 SendSingleByte;
  85:.\main.c      ****     uint8 SendEmulatedData;
  86:.\main.c      ****     /* Transmit Buffer */
  87:.\main.c      ****     char TransmitBuffer[TRANSMIT_BUFFER_SIZE];
  88:.\main.c      ****     float volt[21]={-1};
  57              		.loc 1 88 0
  58 0006 3B46     		mov	r3, r7
  59 0008 5422     		movs	r2, #84
  60 000a 1846     		mov	r0, r3
  61 000c 0021     		movs	r1, #0
  62 000e FFF7FEFF 		bl	memset
  63 0012 8F4B     		ldr	r3, .L19
  64 0014 3B60     		str	r3, [r7]	@ float
  89:.\main.c      ****    // int current[10]={0};
  90:.\main.c      ****     /* Start the components */
  91:.\main.c      ****     ADC_DelSig_1_Start();
  65              		.loc 1 91 0
  66 0016 FFF7FEFF 		bl	ADC_DelSig_1_Start
ARM GAS  C:\Users\MONICA~1\AppData\Local\Temp\ccMhgwSS.s 			page 4


  92:.\main.c      ****     UART_1_Start();
  67              		.loc 1 92 0
  68 001a FFF7FEFF 		bl	UART_1_Start
  93:.\main.c      ****     uint16 vrms=0;
  69              		.loc 1 93 0
  70 001e 0023     		movs	r3, #0
  71 0020 A7F87E30 		strh	r3, [r7, #126]	@ movhi
  94:.\main.c      ****     /* Initialize Variables */
  95:.\main.c      ****     ContinuouslySendData = FALSE;
  72              		.loc 1 95 0
  73 0024 0023     		movs	r3, #0
  74 0026 87F88E30 		strb	r3, [r7, #142]
  96:.\main.c      ****     SendSingleByte = FALSE;
  75              		.loc 1 96 0
  76 002a 0023     		movs	r3, #0
  77 002c 87F88D30 		strb	r3, [r7, #141]
  97:.\main.c      ****     SendEmulatedData = TRUE;
  78              		.loc 1 97 0
  79 0030 0123     		movs	r3, #1
  80 0032 87F88C30 		strb	r3, [r7, #140]
  98:.\main.c      ****     EmulatedData = 0;
  81              		.loc 1 98 0
  82 0036 0023     		movs	r3, #0
  83 0038 87F88F30 		strb	r3, [r7, #143]
  99:.\main.c      ****     
 100:.\main.c      ****     /* Start the ADC conversion */
 101:.\main.c      ****     ADC_DelSig_1_StartConvert();
  84              		.loc 1 101 0
  85 003c FFF7FEFF 		bl	ADC_DelSig_1_StartConvert
 102:.\main.c      ****     
 103:.\main.c      ****     /* Send message to verify COM port is connected properly */
 104:.\main.c      ****     UART_1_PutString("COM Port Open");
  86              		.loc 1 104 0
  87 0040 8448     		ldr	r0, .L19+4
  88 0042 FFF7FEFF 		bl	UART_1_PutString
 105:.\main.c      ****     
 106:.\main.c      ****     int n;
 107:.\main.c      ****     
 108:.\main.c      ****     for(n=0;n<20;)
  89              		.loc 1 108 0
  90 0046 0023     		movs	r3, #0
  91 0048 C7F88830 		str	r3, [r7, #136]
  92 004c 89E0     		b	.L2
  93              	.L15:
 109:.\main.c      ****     {        
 110:.\main.c      ****         /* Non-blocking call to get the latest data recieved  */
 111:.\main.c      ****         Ch = UART_1_GetChar();
  94              		.loc 1 111 0
  95 004e FFF7FEFF 		bl	UART_1_GetChar
  96 0052 0346     		mov	r3, r0
  97 0054 87F87D30 		strb	r3, [r7, #125]
 112:.\main.c      ****         
 113:.\main.c      ****         /* Set flags based on UART command */
 114:.\main.c      ****         switch(Ch)
  98              		.loc 1 114 0
  99 0058 97F87D30 		ldrb	r3, [r7, #125]	@ zero_extendqisi2
 100 005c 582B     		cmp	r3, #88
ARM GAS  C:\Users\MONICA~1\AppData\Local\Temp\ccMhgwSS.s 			page 5


 101 005e 21D0     		beq	.L4
 102 0060 582B     		cmp	r3, #88
 103 0062 0BDC     		bgt	.L5
 104 0064 432B     		cmp	r3, #67
 105 0066 15D0     		beq	.L6
 106 0068 432B     		cmp	r3, #67
 107 006a 02DC     		bgt	.L7
 108 006c 002B     		cmp	r3, #0
 109 006e 21D0     		beq	.L18
 115:.\main.c      ****         {
 116:.\main.c      ****             case 0:
 117:.\main.c      ****                 /* No new data was recieved */
 118:.\main.c      ****                 break;
 119:.\main.c      ****             case 'C':
 120:.\main.c      ****             case 'c':
 121:.\main.c      ****                 SendSingleByte = TRUE;
 122:.\main.c      ****                 break;
 123:.\main.c      ****             case 'S':
 124:.\main.c      ****             case 's':
 125:.\main.c      ****                 ContinuouslySendData = TRUE;
 126:.\main.c      ****                 break;
 127:.\main.c      ****             case 'X':
 128:.\main.c      ****             case 'x':
 129:.\main.c      ****                 ContinuouslySendData = FALSE;
 130:.\main.c      ****                 break;
 131:.\main.c      ****             case 'E':
 132:.\main.c      ****             case 'e':
 133:.\main.c      ****                 SendEmulatedData = TRUE;
 134:.\main.c      ****                 break;
 135:.\main.c      ****             default:
 136:.\main.c      ****                 /* Place error handling code here */
 137:.\main.c      ****                 break;    
 110              		.loc 1 137 0
 111 0070 21E0     		b	.L12
 112              	.L7:
 114:.\main.c      ****         {
 113              		.loc 1 114 0
 114 0072 452B     		cmp	r3, #69
 115 0074 1AD0     		beq	.L9
 116 0076 532B     		cmp	r3, #83
 117 0078 10D0     		beq	.L10
 118              		.loc 1 137 0
 119 007a 1CE0     		b	.L12
 120              	.L5:
 114:.\main.c      ****         {
 121              		.loc 1 114 0
 122 007c 652B     		cmp	r3, #101
 123 007e 15D0     		beq	.L9
 124 0080 652B     		cmp	r3, #101
 125 0082 02DC     		bgt	.L11
 126 0084 632B     		cmp	r3, #99
 127 0086 05D0     		beq	.L6
 128              		.loc 1 137 0
 129 0088 15E0     		b	.L12
 130              	.L11:
 114:.\main.c      ****         {
 131              		.loc 1 114 0
ARM GAS  C:\Users\MONICA~1\AppData\Local\Temp\ccMhgwSS.s 			page 6


 132 008a 732B     		cmp	r3, #115
 133 008c 06D0     		beq	.L10
 134 008e 782B     		cmp	r3, #120
 135 0090 08D0     		beq	.L4
 136              		.loc 1 137 0
 137 0092 10E0     		b	.L12
 138              	.L6:
 121:.\main.c      ****                 break;
 139              		.loc 1 121 0
 140 0094 0123     		movs	r3, #1
 141 0096 87F88D30 		strb	r3, [r7, #141]
 122:.\main.c      ****             case 'S':
 142              		.loc 1 122 0
 143 009a 0CE0     		b	.L12
 144              	.L10:
 125:.\main.c      ****                 break;
 145              		.loc 1 125 0
 146 009c 0123     		movs	r3, #1
 147 009e 87F88E30 		strb	r3, [r7, #142]
 126:.\main.c      ****             case 'X':
 148              		.loc 1 126 0
 149 00a2 08E0     		b	.L12
 150              	.L4:
 129:.\main.c      ****                 break;
 151              		.loc 1 129 0
 152 00a4 0023     		movs	r3, #0
 153 00a6 87F88E30 		strb	r3, [r7, #142]
 130:.\main.c      ****             case 'E':
 154              		.loc 1 130 0
 155 00aa 04E0     		b	.L12
 156              	.L9:
 133:.\main.c      ****                 break;
 157              		.loc 1 133 0
 158 00ac 0123     		movs	r3, #1
 159 00ae 87F88C30 		strb	r3, [r7, #140]
 134:.\main.c      ****             default:
 160              		.loc 1 134 0
 161 00b2 00E0     		b	.L12
 162              	.L18:
 118:.\main.c      ****             case 'C':
 163              		.loc 1 118 0
 164 00b4 00BF     		nop
 165              	.L12:
 138:.\main.c      ****         }
 139:.\main.c      ****         
 140:.\main.c      ****         /* Check to see if an ADC conversion has completed */
 141:.\main.c      ****         if(ADC_DelSig_1_IsEndConversion(ADC_DelSig_1_RETURN_STATUS))
 166              		.loc 1 141 0
 167 00b6 0120     		movs	r0, #1
 168 00b8 FFF7FEFF 		bl	ADC_DelSig_1_IsEndConversion
 169 00bc 0346     		mov	r3, r0
 170 00be 002B     		cmp	r3, #0
 171 00c0 4FD0     		beq	.L2
 142:.\main.c      ****         {
 143:.\main.c      ****             /* Use the GetResult16 API to get an 8 bit unsigned result in
 144:.\main.c      ****              * single ended mode.  The API CountsTo_mVolts is then used
 145:.\main.c      ****              * to convert the ADC countxs into mV before transmitting via
ARM GAS  C:\Users\MONICA~1\AppData\Local\Temp\ccMhgwSS.s 			page 7


 146:.\main.c      ****              * the UART.  See the datasheet API description for more
 147:.\main.c      ****              * details */
 148:.\main.c      ****             Output = ADC_DelSig_1_CountsTo_mVolts(ADC_DelSig_1_GetResult16());
 172              		.loc 1 148 0
 173 00c2 FFF7FEFF 		bl	ADC_DelSig_1_GetResult16
 174 00c6 0346     		mov	r3, r0
 175 00c8 1846     		mov	r0, r3
 176 00ca FFF7FEFF 		bl	ADC_DelSig_1_CountsTo_mVolts
 177 00ce 0346     		mov	r3, r0
 178 00d0 BB67     		str	r3, [r7, #120]
 149:.\main.c      ****             
 150:.\main.c      ****             /* Send data based on last UART command */
 151:.\main.c      ****             if(SendSingleByte || ContinuouslySendData)
 179              		.loc 1 151 0
 180 00d2 97F88D30 		ldrb	r3, [r7, #141]	@ zero_extendqisi2
 181 00d6 002B     		cmp	r3, #0
 182 00d8 03D1     		bne	.L13
 183              		.loc 1 151 0 is_stmt 0 discriminator 1
 184 00da 97F88E30 		ldrb	r3, [r7, #142]	@ zero_extendqisi2
 185 00de 002B     		cmp	r3, #0
 186 00e0 21D0     		beq	.L14
 187              	.L13:
 152:.\main.c      ****             {
 153:.\main.c      ****                 Sample_Hold_1_Start();
 188              		.loc 1 153 0 is_stmt 1
 189 00e2 FFF7FEFF 		bl	Sample_Hold_1_Start
 154:.\main.c      ****                 /* Format ADC result for transmition */
 155:.\main.c      ****                 sprintf(TransmitBuffer, "Sample: %lu mV\r\n", Output);
 190              		.loc 1 155 0
 191 00e6 07F15403 		add	r3, r7, #84
 192 00ea 1846     		mov	r0, r3
 193 00ec 5A49     		ldr	r1, .L19+8
 194 00ee BA6F     		ldr	r2, [r7, #120]
 195 00f0 FFF7FEFF 		bl	sprintf
 156:.\main.c      ****                 //UART_1_PutString(TransmitBuffer);
 157:.\main.c      ****                 volt[n]=Output;
 196              		.loc 1 157 0
 197 00f4 B86F     		ldr	r0, [r7, #120]
 198 00f6 FFF7FEFF 		bl	__aeabi_i2f
 199 00fa 0246     		mov	r2, r0
 200 00fc D7F88830 		ldr	r3, [r7, #136]
 201 0100 9B00     		lsls	r3, r3, #2
 202 0102 07F19001 		add	r1, r7, #144
 203 0106 0B44     		add	r3, r3, r1
 204 0108 43F8902C 		str	r2, [r3, #-144]	@ float
 158:.\main.c      ****                 n+=1;
 205              		.loc 1 158 0
 206 010c D7F88830 		ldr	r3, [r7, #136]
 207 0110 0133     		adds	r3, r3, #1
 208 0112 C7F88830 		str	r3, [r7, #136]
 159:.\main.c      ****                 UART_1_PutString(TransmitBuffer);
 209              		.loc 1 159 0
 210 0116 07F15403 		add	r3, r7, #84
 211 011a 1846     		mov	r0, r3
 212 011c FFF7FEFF 		bl	UART_1_PutString
 160:.\main.c      ****                 /* Reset the send once flag */
 161:.\main.c      ****                // SendSingleByte = FALSE;
ARM GAS  C:\Users\MONICA~1\AppData\Local\Temp\ccMhgwSS.s 			page 8


 162:.\main.c      ****                 Sample_Hold_1_Stop();
 213              		.loc 1 162 0
 214 0120 FFF7FEFF 		bl	Sample_Hold_1_Stop
 215 0124 1DE0     		b	.L2
 216              	.L14:
 163:.\main.c      ****             }
 164:.\main.c      ****             else if(SendEmulatedData)
 217              		.loc 1 164 0
 218 0126 97F88C30 		ldrb	r3, [r7, #140]	@ zero_extendqisi2
 219 012a 002B     		cmp	r3, #0
 220 012c 19D0     		beq	.L2
 165:.\main.c      ****             {
 166:.\main.c      ****                 Sample_Hold_1_Start();
 221              		.loc 1 166 0
 222 012e FFF7FEFF 		bl	Sample_Hold_1_Start
 167:.\main.c      ****                 /* Format ADC result for transmition */
 168:.\main.c      ****                 sprintf(TransmitBuffer, "Emulated Data: %x \r\n", EmulatedData);
 223              		.loc 1 168 0
 224 0132 97F88F30 		ldrb	r3, [r7, #143]	@ zero_extendqisi2
 225 0136 07F15402 		add	r2, r7, #84
 226 013a 1046     		mov	r0, r2
 227 013c 4749     		ldr	r1, .L19+12
 228 013e 1A46     		mov	r2, r3
 229 0140 FFF7FEFF 		bl	sprintf
 169:.\main.c      ****                 /* Send out the data */
 170:.\main.c      ****                 UART_1_PutString(TransmitBuffer);
 230              		.loc 1 170 0
 231 0144 07F15403 		add	r3, r7, #84
 232 0148 1846     		mov	r0, r3
 233 014a FFF7FEFF 		bl	UART_1_PutString
 171:.\main.c      ****                 EmulatedData++;
 234              		.loc 1 171 0
 235 014e 97F88F30 		ldrb	r3, [r7, #143]	@ zero_extendqisi2
 236 0152 0133     		adds	r3, r3, #1
 237 0154 87F88F30 		strb	r3, [r7, #143]
 172:.\main.c      ****                 /* Reset the send once flag */
 173:.\main.c      ****                 SendEmulatedData = FALSE;
 238              		.loc 1 173 0
 239 0158 0023     		movs	r3, #0
 240 015a 87F88C30 		strb	r3, [r7, #140]
 174:.\main.c      ****                 Sample_Hold_1_Stop();
 241              		.loc 1 174 0
 242 015e FFF7FEFF 		bl	Sample_Hold_1_Stop
 243              	.L2:
 108:.\main.c      ****     {        
 244              		.loc 1 108 0 discriminator 1
 245 0162 D7F88830 		ldr	r3, [r7, #136]
 246 0166 132B     		cmp	r3, #19
 247 0168 7FF771AF 		ble	.L15
 175:.\main.c      ****             }
 176:.\main.c      ****         }
 177:.\main.c      ****     }
 178:.\main.c      **** 
 179:.\main.c      ****     int power=0;
 248              		.loc 1 179 0
 249 016c 0023     		movs	r3, #0
 250 016e C7F88430 		str	r3, [r7, #132]
ARM GAS  C:\Users\MONICA~1\AppData\Local\Temp\ccMhgwSS.s 			page 9


 180:.\main.c      ****     int power1=0;
 251              		.loc 1 180 0
 252 0172 0023     		movs	r3, #0
 253 0174 C7F88030 		str	r3, [r7, #128]
 181:.\main.c      ****     for(n=0;n<10;n=n+1)
 254              		.loc 1 181 0
 255 0178 0023     		movs	r3, #0
 256 017a C7F88830 		str	r3, [r7, #136]
 257 017e 2BE0     		b	.L16
 258              	.L17:
 259              	.LBB2:
 182:.\main.c      ****     {
 183:.\main.c      ****         int p=(volt[n+7]*volt[n]);
 260              		.loc 1 183 0 discriminator 3
 261 0180 D7F88830 		ldr	r3, [r7, #136]
 262 0184 0733     		adds	r3, r3, #7
 263 0186 9B00     		lsls	r3, r3, #2
 264 0188 07F19002 		add	r2, r7, #144
 265 018c 1344     		add	r3, r3, r2
 266 018e 53F8902C 		ldr	r2, [r3, #-144]	@ float
 267 0192 D7F88830 		ldr	r3, [r7, #136]
 268 0196 9B00     		lsls	r3, r3, #2
 269 0198 07F19001 		add	r1, r7, #144
 270 019c 0B44     		add	r3, r3, r1
 271 019e 53F8903C 		ldr	r3, [r3, #-144]	@ float
 272 01a2 1046     		mov	r0, r2
 273 01a4 1946     		mov	r1, r3
 274 01a6 FFF7FEFF 		bl	__aeabi_fmul
 275 01aa 0346     		mov	r3, r0
 276 01ac 1846     		mov	r0, r3
 277 01ae FFF7FEFF 		bl	__aeabi_f2iz
 278 01b2 0346     		mov	r3, r0
 279 01b4 7B67     		str	r3, [r7, #116]
 184:.\main.c      ****         power1=+p;
 280              		.loc 1 184 0 discriminator 3
 281 01b6 7B6F     		ldr	r3, [r7, #116]
 282 01b8 C7F88030 		str	r3, [r7, #128]
 185:.\main.c      ****         
 186:.\main.c      ****         power+=p*p;
 283              		.loc 1 186 0 discriminator 3
 284 01bc 7B6F     		ldr	r3, [r7, #116]
 285 01be 7A6F     		ldr	r2, [r7, #116]
 286 01c0 02FB03F3 		mul	r3, r2, r3
 287 01c4 D7F88420 		ldr	r2, [r7, #132]
 288 01c8 1344     		add	r3, r3, r2
 289 01ca C7F88430 		str	r3, [r7, #132]
 290              	.LBE2:
 181:.\main.c      ****     {
 291              		.loc 1 181 0 discriminator 3
 292 01ce D7F88830 		ldr	r3, [r7, #136]
 293 01d2 0133     		adds	r3, r3, #1
 294 01d4 C7F88830 		str	r3, [r7, #136]
 295              	.L16:
 181:.\main.c      ****     {
 296              		.loc 1 181 0 is_stmt 0 discriminator 1
 297 01d8 D7F88830 		ldr	r3, [r7, #136]
 298 01dc 092B     		cmp	r3, #9
ARM GAS  C:\Users\MONICA~1\AppData\Local\Temp\ccMhgwSS.s 			page 10


 299 01de CFDD     		ble	.L17
 187:.\main.c      ****     }
 188:.\main.c      ****     power1=power1/10;
 300              		.loc 1 188 0 is_stmt 1
 301 01e0 D7F88030 		ldr	r3, [r7, #128]
 302 01e4 1E4A     		ldr	r2, .L19+16
 303 01e6 82FB0312 		smull	r1, r2, r2, r3
 304 01ea 9210     		asrs	r2, r2, #2
 305 01ec DB17     		asrs	r3, r3, #31
 306 01ee D31A     		subs	r3, r2, r3
 307 01f0 C7F88030 		str	r3, [r7, #128]
 189:.\main.c      ****     //sprintf(TransmitBuffer, "power : %d\r\n", power1);
 190:.\main.c      ****     //UART_1_PutString(TransmitBuffer);
 191:.\main.c      ****     power=power/10;
 308              		.loc 1 191 0
 309 01f4 D7F88430 		ldr	r3, [r7, #132]
 310 01f8 194A     		ldr	r2, .L19+16
 311 01fa 82FB0312 		smull	r1, r2, r2, r3
 312 01fe 9210     		asrs	r2, r2, #2
 313 0200 DB17     		asrs	r3, r3, #31
 314 0202 D31A     		subs	r3, r2, r3
 315 0204 C7F88430 		str	r3, [r7, #132]
 192:.\main.c      ****     power=sqrt(power);
 316              		.loc 1 192 0
 317 0208 D7F88400 		ldr	r0, [r7, #132]
 318 020c FFF7FEFF 		bl	__aeabi_i2d
 319 0210 0246     		mov	r2, r0
 320 0212 0B46     		mov	r3, r1
 321 0214 1046     		mov	r0, r2
 322 0216 1946     		mov	r1, r3
 323 0218 FFF7FEFF 		bl	sqrt
 324 021c 0246     		mov	r2, r0
 325 021e 0B46     		mov	r3, r1
 326 0220 1046     		mov	r0, r2
 327 0222 1946     		mov	r1, r3
 328 0224 FFF7FEFF 		bl	__aeabi_d2iz
 329 0228 0346     		mov	r3, r0
 330 022a C7F88430 		str	r3, [r7, #132]
 193:.\main.c      ****     
 194:.\main.c      ****     sprintf(TransmitBuffer, "power : %d\r\n", power);
 331              		.loc 1 194 0
 332 022e 07F15403 		add	r3, r7, #84
 333 0232 1846     		mov	r0, r3
 334 0234 0B49     		ldr	r1, .L19+20
 335 0236 D7F88420 		ldr	r2, [r7, #132]
 336 023a FFF7FEFF 		bl	sprintf
 195:.\main.c      ****     UART_1_PutString(TransmitBuffer);
 337              		.loc 1 195 0
 338 023e 07F15403 		add	r3, r7, #84
 339 0242 1846     		mov	r0, r3
 340 0244 FFF7FEFF 		bl	UART_1_PutString
 196:.\main.c      **** }
 341              		.loc 1 196 0
 342 0248 1846     		mov	r0, r3
 343 024a 9037     		adds	r7, r7, #144
 344              		.cfi_def_cfa_offset 8
 345 024c BD46     		mov	sp, r7
ARM GAS  C:\Users\MONICA~1\AppData\Local\Temp\ccMhgwSS.s 			page 11


 346              		.cfi_def_cfa_register 13
 347              		@ sp needed
 348 024e 80BD     		pop	{r7, pc}
 349              	.L20:
 350              		.align	2
 351              	.L19:
 352 0250 000080BF 		.word	-1082130432
 353 0254 00000000 		.word	.LC0
 354 0258 10000000 		.word	.LC1
 355 025c 24000000 		.word	.LC2
 356 0260 67666666 		.word	1717986919
 357 0264 3C000000 		.word	.LC3
 358              		.cfi_endproc
 359              	.LFE63:
 360              		.size	main, .-main
 361              		.text
 362              	.Letext0:
 363              		.file 2 "c:\\program files (x86)\\cypress\\psoc creator\\3.3\\psoc creator\\import\\gnu\\arm\\4.9.
 364              		.file 3 "c:\\program files (x86)\\cypress\\psoc creator\\3.3\\psoc creator\\import\\gnu\\arm\\4.9.
 365              		.file 4 "Generated_Source\\PSoC5/cytypes.h"
 366              		.file 5 "Generated_Source\\PSoC5/core_cm3.h"