ARM GAS  C:\Users\Randhir\AppData\Local\Temp\ccFd2DXM.s 			page 1


   1              		.syntax unified
   2              		.cpu cortex-m3
   3              		.fpu softvfp
   4              		.eabi_attribute 20, 1
   5              		.eabi_attribute 21, 1
   6              		.eabi_attribute 23, 3
   7              		.eabi_attribute 24, 1
   8              		.eabi_attribute 25, 1
   9              		.eabi_attribute 26, 1
  10              		.eabi_attribute 30, 6
  11              		.eabi_attribute 34, 1
  12              		.eabi_attribute 18, 4
  13              		.thumb
  14              		.file	"Sample_Hold_1.c"
  15              		.text
  16              	.Ltext0:
  17              		.cfi_sections	.debug_frame
  18              		.global	Sample_Hold_1_initVar
  19              		.bss
  20              		.type	Sample_Hold_1_initVar, %object
  21              		.size	Sample_Hold_1_initVar, 1
  22              	Sample_Hold_1_initVar:
  23 0000 00       		.space	1
  24              		.section	.text.Sample_Hold_1_Init,"ax",%progbits
  25              		.align	2
  26              		.global	Sample_Hold_1_Init
  27              		.thumb
  28              		.thumb_func
  29              		.type	Sample_Hold_1_Init, %function
  30              	Sample_Hold_1_Init:
  31              	.LFB0:
  32              		.file 1 ".\\Generated_Source\\PSoC5\\Sample_Hold_1.c"
   1:.\Generated_Source\PSoC5/Sample_Hold_1.c **** /*******************************************************************************
   2:.\Generated_Source\PSoC5/Sample_Hold_1.c **** * File Name: Sample_Hold_1.c
   3:.\Generated_Source\PSoC5/Sample_Hold_1.c **** * Version 1.40
   4:.\Generated_Source\PSoC5/Sample_Hold_1.c **** *
   5:.\Generated_Source\PSoC5/Sample_Hold_1.c **** * Description:
   6:.\Generated_Source\PSoC5/Sample_Hold_1.c **** *  This file provides the source code to the API for the SAMPLE/TRACK AND HOLD 
   7:.\Generated_Source\PSoC5/Sample_Hold_1.c **** *  component.
   8:.\Generated_Source\PSoC5/Sample_Hold_1.c **** *
   9:.\Generated_Source\PSoC5/Sample_Hold_1.c **** * Note:
  10:.\Generated_Source\PSoC5/Sample_Hold_1.c **** *  None
  11:.\Generated_Source\PSoC5/Sample_Hold_1.c **** *
  12:.\Generated_Source\PSoC5/Sample_Hold_1.c **** ********************************************************************************
  13:.\Generated_Source\PSoC5/Sample_Hold_1.c **** * Copyright 2008-2012, Cypress Semiconductor Corporation.  All rights reserved.
  14:.\Generated_Source\PSoC5/Sample_Hold_1.c **** * You may use this file only in accordance with the license, terms, conditions, 
  15:.\Generated_Source\PSoC5/Sample_Hold_1.c **** * disclaimers, and limitations in the end user license agreement accompanying 
  16:.\Generated_Source\PSoC5/Sample_Hold_1.c **** * the software package with which this file was provided.
  17:.\Generated_Source\PSoC5/Sample_Hold_1.c **** *******************************************************************************/
  18:.\Generated_Source\PSoC5/Sample_Hold_1.c **** 
  19:.\Generated_Source\PSoC5/Sample_Hold_1.c **** #include "Sample_Hold_1.h"
  20:.\Generated_Source\PSoC5/Sample_Hold_1.c **** 
  21:.\Generated_Source\PSoC5/Sample_Hold_1.c **** #if (!CY_PSOC5A)
  22:.\Generated_Source\PSoC5/Sample_Hold_1.c ****     #if (CYDEV_VARIABLE_VDDA == 1u)
  23:.\Generated_Source\PSoC5/Sample_Hold_1.c ****         #include "CyScBoostClk.h"
  24:.\Generated_Source\PSoC5/Sample_Hold_1.c ****     #endif /* (CYDEV_VARIABLE_VDDA == 1u) */
  25:.\Generated_Source\PSoC5/Sample_Hold_1.c **** #endif /* (!CY_PSOC5A) */
ARM GAS  C:\Users\Randhir\AppData\Local\Temp\ccFd2DXM.s 			page 2


  26:.\Generated_Source\PSoC5/Sample_Hold_1.c **** 
  27:.\Generated_Source\PSoC5/Sample_Hold_1.c **** uint8 Sample_Hold_1_initVar = 0u;
  28:.\Generated_Source\PSoC5/Sample_Hold_1.c **** 
  29:.\Generated_Source\PSoC5/Sample_Hold_1.c **** /* static Sample_Hold_1_backupStruct  Sample_Hold_1_backup; */
  30:.\Generated_Source\PSoC5/Sample_Hold_1.c **** #if (CY_PSOC5A)
  31:.\Generated_Source\PSoC5/Sample_Hold_1.c ****     static Sample_Hold_1_backupStruct  Sample_Hold_1_P5backup;
  32:.\Generated_Source\PSoC5/Sample_Hold_1.c **** #endif /* CY_PSOC5A */
  33:.\Generated_Source\PSoC5/Sample_Hold_1.c **** 
  34:.\Generated_Source\PSoC5/Sample_Hold_1.c **** 
  35:.\Generated_Source\PSoC5/Sample_Hold_1.c **** 
  36:.\Generated_Source\PSoC5/Sample_Hold_1.c **** /*******************************************************************************   
  37:.\Generated_Source\PSoC5/Sample_Hold_1.c **** * Function Name: Sample_Hold_1_Init
  38:.\Generated_Source\PSoC5/Sample_Hold_1.c **** ********************************************************************************
  39:.\Generated_Source\PSoC5/Sample_Hold_1.c **** *
  40:.\Generated_Source\PSoC5/Sample_Hold_1.c **** * Summary:
  41:.\Generated_Source\PSoC5/Sample_Hold_1.c **** *  Initialize component's parameters to the parameters set by user in the 
  42:.\Generated_Source\PSoC5/Sample_Hold_1.c **** *  customizer of the component placed onto schematic. Usually called in 
  43:.\Generated_Source\PSoC5/Sample_Hold_1.c **** *  Sample_Hold_1_Start().
  44:.\Generated_Source\PSoC5/Sample_Hold_1.c **** *
  45:.\Generated_Source\PSoC5/Sample_Hold_1.c **** * Parameters:
  46:.\Generated_Source\PSoC5/Sample_Hold_1.c **** *  void
  47:.\Generated_Source\PSoC5/Sample_Hold_1.c **** *
  48:.\Generated_Source\PSoC5/Sample_Hold_1.c **** * Return:
  49:.\Generated_Source\PSoC5/Sample_Hold_1.c **** *  void
  50:.\Generated_Source\PSoC5/Sample_Hold_1.c **** *
  51:.\Generated_Source\PSoC5/Sample_Hold_1.c **** *******************************************************************************/
  52:.\Generated_Source\PSoC5/Sample_Hold_1.c **** void Sample_Hold_1_Init(void) 
  53:.\Generated_Source\PSoC5/Sample_Hold_1.c **** {   
  33              		.loc 1 53 0
  34              		.cfi_startproc
  35              		@ args = 0, pretend = 0, frame = 0
  36              		@ frame_needed = 1, uses_anonymous_args = 0
  37 0000 80B5     		push	{r7, lr}
  38              		.cfi_def_cfa_offset 8
  39              		.cfi_offset 7, -8
  40              		.cfi_offset 14, -4
  41 0002 00AF     		add	r7, sp, #0
  42              		.cfi_def_cfa_register 7
  54:.\Generated_Source\PSoC5/Sample_Hold_1.c ****     /* Configure SC Block based on selected Sample/Track type */
  55:.\Generated_Source\PSoC5/Sample_Hold_1.c ****     #if (Sample_Hold_1_SAMPLE_TRACK_MODE == Sample_Hold_1_SAMPLEANDHOLD) /* Sample and hold mode */
  56:.\Generated_Source\PSoC5/Sample_Hold_1.c ****         /* SC Block mode -  - SCxx_CR0[3:1] */
  57:.\Generated_Source\PSoC5/Sample_Hold_1.c ****         Sample_Hold_1_CR0_REG = Sample_Hold_1_MODE_SAMPLEANDHOLD;
  43              		.loc 1 57 0
  44 0004 0E4B     		ldr	r3, .L2
  45 0006 0622     		movs	r2, #6
  46 0008 1A70     		strb	r2, [r3]
  58:.\Generated_Source\PSoC5/Sample_Hold_1.c ****         
  59:.\Generated_Source\PSoC5/Sample_Hold_1.c ****         /* SC Block CR1 */ 
  60:.\Generated_Source\PSoC5/Sample_Hold_1.c ****         Sample_Hold_1_CR1_REG = (Sample_Hold_1_COMP_4P35PF  |
  47              		.loc 1 60 0
  48 000a 0E4B     		ldr	r3, .L2+4
  49 000c 0822     		movs	r2, #8
  50 000e 1A70     		strb	r2, [r3]
  61:.\Generated_Source\PSoC5/Sample_Hold_1.c ****                                 Sample_Hold_1_GAIN_0DB);
  62:.\Generated_Source\PSoC5/Sample_Hold_1.c ****         #if(Sample_Hold_1_SAMPLE_CLOCK_EDGE == Sample_Hold_1_EDGE_POSITIVENEGATIVE)
  63:.\Generated_Source\PSoC5/Sample_Hold_1.c ****             Sample_Hold_1_CR1_REG =  Sample_Hold_1_CR1_REG  | Sample_Hold_1_DIV2_DISABLE ;
  64:.\Generated_Source\PSoC5/Sample_Hold_1.c ****         #else
ARM GAS  C:\Users\Randhir\AppData\Local\Temp\ccFd2DXM.s 			page 3


  65:.\Generated_Source\PSoC5/Sample_Hold_1.c ****             Sample_Hold_1_CR1_REG =  Sample_Hold_1_CR1_REG  | Sample_Hold_1_DIV2_ENABLE ;
  51              		.loc 1 65 0
  52 0010 0C4B     		ldr	r3, .L2+4
  53 0012 0C4A     		ldr	r2, .L2+4
  54 0014 1278     		ldrb	r2, [r2]
  55 0016 D2B2     		uxtb	r2, r2
  56 0018 42F01002 		orr	r2, r2, #16
  57 001c D2B2     		uxtb	r2, r2
  58 001e 1A70     		strb	r2, [r3]
  66:.\Generated_Source\PSoC5/Sample_Hold_1.c ****         #endif
  67:.\Generated_Source\PSoC5/Sample_Hold_1.c ****          
  68:.\Generated_Source\PSoC5/Sample_Hold_1.c ****         #if(Sample_Hold_1_VREF_TYPE == Sample_Hold_1_EXTERNAL)
  69:.\Generated_Source\PSoC5/Sample_Hold_1.c ****             Sample_Hold_1_CR2_REG = Sample_Hold_1_BIAS_LOW |
  70:.\Generated_Source\PSoC5/Sample_Hold_1.c ****                                        Sample_Hold_1_REDC_00 | 
  71:.\Generated_Source\PSoC5/Sample_Hold_1.c ****                                        Sample_Hold_1_GNDVREF_DI;
  72:.\Generated_Source\PSoC5/Sample_Hold_1.c ****         #else
  73:.\Generated_Source\PSoC5/Sample_Hold_1.c ****             Sample_Hold_1_CR2_REG = Sample_Hold_1_BIAS_LOW |
  59              		.loc 1 73 0
  60 0020 094B     		ldr	r3, .L2+8
  61 0022 8122     		movs	r2, #129
  62 0024 1A70     		strb	r2, [r3]
  74:.\Generated_Source\PSoC5/Sample_Hold_1.c ****                                        Sample_Hold_1_REDC_00 | 
  75:.\Generated_Source\PSoC5/Sample_Hold_1.c ****                                        Sample_Hold_1_GNDVREF_E;
  76:.\Generated_Source\PSoC5/Sample_Hold_1.c ****         #endif
  77:.\Generated_Source\PSoC5/Sample_Hold_1.c ****     #else
  78:.\Generated_Source\PSoC5/Sample_Hold_1.c ****         /* Track and Hold Mode */
  79:.\Generated_Source\PSoC5/Sample_Hold_1.c ****         /* SC Block mode -  - SCxx_CR0[3:1] */
  80:.\Generated_Source\PSoC5/Sample_Hold_1.c ****         Sample_Hold_1_CR0_REG = Sample_Hold_1_MODE_TRACKANDHOLD; 
  81:.\Generated_Source\PSoC5/Sample_Hold_1.c ****         
  82:.\Generated_Source\PSoC5/Sample_Hold_1.c ****         /* SC Block CR1 */ 
  83:.\Generated_Source\PSoC5/Sample_Hold_1.c ****         Sample_Hold_1_CR1_REG = Sample_Hold_1_COMP_4P35PF  |
  84:.\Generated_Source\PSoC5/Sample_Hold_1.c ****                                    Sample_Hold_1_DIV2_ENABLE |
  85:.\Generated_Source\PSoC5/Sample_Hold_1.c ****                                    Sample_Hold_1_GAIN_0DB;
  86:.\Generated_Source\PSoC5/Sample_Hold_1.c ****                                 
  87:.\Generated_Source\PSoC5/Sample_Hold_1.c ****         /* SC Block CR2 */
  88:.\Generated_Source\PSoC5/Sample_Hold_1.c ****         Sample_Hold_1_CR2_REG = Sample_Hold_1_BIAS_LOW |
  89:.\Generated_Source\PSoC5/Sample_Hold_1.c ****                                    Sample_Hold_1_REDC_00 |
  90:.\Generated_Source\PSoC5/Sample_Hold_1.c ****                                    Sample_Hold_1_GNDVREF_E;
  91:.\Generated_Source\PSoC5/Sample_Hold_1.c ****     #endif /* end if - Sample/Track Type */
  92:.\Generated_Source\PSoC5/Sample_Hold_1.c ****     
  93:.\Generated_Source\PSoC5/Sample_Hold_1.c ****     /* Enable SC Block clocking */
  94:.\Generated_Source\PSoC5/Sample_Hold_1.c ****     Sample_Hold_1_CLK_REG |= Sample_Hold_1_CLK_EN;
  63              		.loc 1 94 0
  64 0026 094B     		ldr	r3, .L2+12
  65 0028 084A     		ldr	r2, .L2+12
  66 002a 1278     		ldrb	r2, [r2]
  67 002c D2B2     		uxtb	r2, r2
  68 002e 42F00802 		orr	r2, r2, #8
  69 0032 D2B2     		uxtb	r2, r2
  70 0034 1A70     		strb	r2, [r3]
  95:.\Generated_Source\PSoC5/Sample_Hold_1.c ****     
  96:.\Generated_Source\PSoC5/Sample_Hold_1.c ****     /* Set default power */
  97:.\Generated_Source\PSoC5/Sample_Hold_1.c ****     Sample_Hold_1_SetPower(Sample_Hold_1_INIT_POWER);
  71              		.loc 1 97 0
  72 0036 0220     		movs	r0, #2
  73 0038 FFF7FEFF 		bl	Sample_Hold_1_SetPower
  98:.\Generated_Source\PSoC5/Sample_Hold_1.c **** }
ARM GAS  C:\Users\Randhir\AppData\Local\Temp\ccFd2DXM.s 			page 4


  74              		.loc 1 98 0
  75 003c 80BD     		pop	{r7, pc}
  76              	.L3:
  77 003e 00BF     		.align	2
  78              	.L2:
  79 0040 00580040 		.word	1073764352
  80 0044 01580040 		.word	1073764353
  81 0048 02580040 		.word	1073764354
  82 004c 0B5A0040 		.word	1073764875
  83              		.cfi_endproc
  84              	.LFE0:
  85              		.size	Sample_Hold_1_Init, .-Sample_Hold_1_Init
  86              		.section	.text.Sample_Hold_1_Enable,"ax",%progbits
  87              		.align	2
  88              		.global	Sample_Hold_1_Enable
  89              		.thumb
  90              		.thumb_func
  91              		.type	Sample_Hold_1_Enable, %function
  92              	Sample_Hold_1_Enable:
  93              	.LFB1:
  99:.\Generated_Source\PSoC5/Sample_Hold_1.c **** 
 100:.\Generated_Source\PSoC5/Sample_Hold_1.c **** 
 101:.\Generated_Source\PSoC5/Sample_Hold_1.c **** /*******************************************************************************   
 102:.\Generated_Source\PSoC5/Sample_Hold_1.c **** * Function Name: Sample_Hold_1_Enable
 103:.\Generated_Source\PSoC5/Sample_Hold_1.c **** ********************************************************************************
 104:.\Generated_Source\PSoC5/Sample_Hold_1.c **** *
 105:.\Generated_Source\PSoC5/Sample_Hold_1.c **** * Summary:
 106:.\Generated_Source\PSoC5/Sample_Hold_1.c **** *  Enables the Sample/Track and Hold block operation
 107:.\Generated_Source\PSoC5/Sample_Hold_1.c **** *
 108:.\Generated_Source\PSoC5/Sample_Hold_1.c **** * Parameters:
 109:.\Generated_Source\PSoC5/Sample_Hold_1.c **** *  void
 110:.\Generated_Source\PSoC5/Sample_Hold_1.c **** *
 111:.\Generated_Source\PSoC5/Sample_Hold_1.c **** * Return:
 112:.\Generated_Source\PSoC5/Sample_Hold_1.c **** *  void
 113:.\Generated_Source\PSoC5/Sample_Hold_1.c **** *
 114:.\Generated_Source\PSoC5/Sample_Hold_1.c **** *******************************************************************************/
 115:.\Generated_Source\PSoC5/Sample_Hold_1.c **** void Sample_Hold_1_Enable(void) 
 116:.\Generated_Source\PSoC5/Sample_Hold_1.c **** {
  94              		.loc 1 116 0
  95              		.cfi_startproc
  96              		@ args = 0, pretend = 0, frame = 0
  97              		@ frame_needed = 1, uses_anonymous_args = 0
  98              		@ link register save eliminated.
  99 0000 80B4     		push	{r7}
 100              		.cfi_def_cfa_offset 4
 101              		.cfi_offset 7, -4
 102 0002 00AF     		add	r7, sp, #0
 103              		.cfi_def_cfa_register 7
 117:.\Generated_Source\PSoC5/Sample_Hold_1.c ****     /* This is to restore the value of register CR1 and CR2 which is saved 
 118:.\Generated_Source\PSoC5/Sample_Hold_1.c ****       in prior to the modifications in stop() API */
 119:.\Generated_Source\PSoC5/Sample_Hold_1.c ****     #if (CY_PSOC5A)
 120:.\Generated_Source\PSoC5/Sample_Hold_1.c ****         if(Sample_Hold_1_P5backup.enableState == 1u)
 121:.\Generated_Source\PSoC5/Sample_Hold_1.c ****         {
 122:.\Generated_Source\PSoC5/Sample_Hold_1.c ****             Sample_Hold_1_CR1_REG = Sample_Hold_1_P5backup.scCR1Reg;
 123:.\Generated_Source\PSoC5/Sample_Hold_1.c ****             Sample_Hold_1_CR2_REG = Sample_Hold_1_P5backup.scCR2Reg;
 124:.\Generated_Source\PSoC5/Sample_Hold_1.c ****             Sample_Hold_1_P5backup.enableState = 0u;
 125:.\Generated_Source\PSoC5/Sample_Hold_1.c ****         }
ARM GAS  C:\Users\Randhir\AppData\Local\Temp\ccFd2DXM.s 			page 5


 126:.\Generated_Source\PSoC5/Sample_Hold_1.c ****     #endif /* CY_PSOC5A */
 127:.\Generated_Source\PSoC5/Sample_Hold_1.c ****     
 128:.\Generated_Source\PSoC5/Sample_Hold_1.c ****     /* Enable power to SC block in active mode */
 129:.\Generated_Source\PSoC5/Sample_Hold_1.c ****     Sample_Hold_1_PM_ACT_CFG_REG |= Sample_Hold_1_ACT_PWR_EN;
 104              		.loc 1 129 0
 105 0004 0D4B     		ldr	r3, .L5
 106 0006 0D4A     		ldr	r2, .L5
 107 0008 1278     		ldrb	r2, [r2]
 108 000a D2B2     		uxtb	r2, r2
 109 000c 42F00102 		orr	r2, r2, #1
 110 0010 D2B2     		uxtb	r2, r2
 111 0012 1A70     		strb	r2, [r3]
 130:.\Generated_Source\PSoC5/Sample_Hold_1.c ****     
 131:.\Generated_Source\PSoC5/Sample_Hold_1.c ****     /* Enable power to SC block in Alternative active mode */
 132:.\Generated_Source\PSoC5/Sample_Hold_1.c ****     Sample_Hold_1_PM_STBY_CFG_REG |= Sample_Hold_1_STBY_PWR_EN;
 112              		.loc 1 132 0
 113 0014 0A4B     		ldr	r3, .L5+4
 114 0016 0A4A     		ldr	r2, .L5+4
 115 0018 1278     		ldrb	r2, [r2]
 116 001a D2B2     		uxtb	r2, r2
 117 001c 42F00102 		orr	r2, r2, #1
 118 0020 D2B2     		uxtb	r2, r2
 119 0022 1A70     		strb	r2, [r3]
 133:.\Generated_Source\PSoC5/Sample_Hold_1.c **** 
 134:.\Generated_Source\PSoC5/Sample_Hold_1.c ****     Sample_Hold_1_PUMP_CR1_REG |= Sample_Hold_1_PUMP_CR1_SC_CLKSEL;
 120              		.loc 1 134 0
 121 0024 074B     		ldr	r3, .L5+8
 122 0026 074A     		ldr	r2, .L5+8
 123 0028 1278     		ldrb	r2, [r2]
 124 002a D2B2     		uxtb	r2, r2
 125 002c 62F07F02 		orn	r2, r2, #127
 126 0030 D2B2     		uxtb	r2, r2
 127 0032 1A70     		strb	r2, [r3]
 135:.\Generated_Source\PSoC5/Sample_Hold_1.c ****     
 136:.\Generated_Source\PSoC5/Sample_Hold_1.c ****     #if (!CY_PSOC5A)
 137:.\Generated_Source\PSoC5/Sample_Hold_1.c ****         #if (CYDEV_VARIABLE_VDDA == 1u)
 138:.\Generated_Source\PSoC5/Sample_Hold_1.c ****             if(CyScPumpEnabled == 1u)
 139:.\Generated_Source\PSoC5/Sample_Hold_1.c ****             {
 140:.\Generated_Source\PSoC5/Sample_Hold_1.c ****                 Sample_Hold_1_BSTCLK_REG &= (uint8)(~Sample_Hold_1_BST_CLK_INDEX_MASK);
 141:.\Generated_Source\PSoC5/Sample_Hold_1.c ****                 Sample_Hold_1_BSTCLK_REG |= Sample_Hold_1_BST_CLK_EN | CyScBoostClk__INDEX;
 142:.\Generated_Source\PSoC5/Sample_Hold_1.c ****                 Sample_Hold_1_SC_MISC_REG |= Sample_Hold_1_PUMP_FORCE;
 143:.\Generated_Source\PSoC5/Sample_Hold_1.c ****                 CyScBoostClk_Start();
 144:.\Generated_Source\PSoC5/Sample_Hold_1.c ****             }
 145:.\Generated_Source\PSoC5/Sample_Hold_1.c ****             else
 146:.\Generated_Source\PSoC5/Sample_Hold_1.c ****             {
 147:.\Generated_Source\PSoC5/Sample_Hold_1.c ****                 Sample_Hold_1_BSTCLK_REG &= (uint8)(~Sample_Hold_1_BST_CLK_EN);
 148:.\Generated_Source\PSoC5/Sample_Hold_1.c ****                 Sample_Hold_1_SC_MISC_REG &= (uint8)(~Sample_Hold_1_PUMP_FORCE);
 149:.\Generated_Source\PSoC5/Sample_Hold_1.c ****             }
 150:.\Generated_Source\PSoC5/Sample_Hold_1.c ****         #endif /* (CYDEV_VARIABLE_VDDA == 1u) */
 151:.\Generated_Source\PSoC5/Sample_Hold_1.c ****     #endif /* (!CY_PSOC5A) */
 152:.\Generated_Source\PSoC5/Sample_Hold_1.c **** }
 128              		.loc 1 152 0
 129 0034 BD46     		mov	sp, r7
 130              		@ sp needed
 131 0036 5DF8047B 		ldr	r7, [sp], #4
 132 003a 7047     		bx	lr
 133              	.L6:
ARM GAS  C:\Users\Randhir\AppData\Local\Temp\ccFd2DXM.s 			page 6


 134              		.align	2
 135              	.L5:
 136 003c A9430040 		.word	1073759145
 137 0040 B9430040 		.word	1073759161
 138 0044 77580040 		.word	1073764471
 139              		.cfi_endproc
 140              	.LFE1:
 141              		.size	Sample_Hold_1_Enable, .-Sample_Hold_1_Enable
 142              		.section	.text.Sample_Hold_1_Start,"ax",%progbits
 143              		.align	2
 144              		.global	Sample_Hold_1_Start
 145              		.thumb
 146              		.thumb_func
 147              		.type	Sample_Hold_1_Start, %function
 148              	Sample_Hold_1_Start:
 149              	.LFB2:
 153:.\Generated_Source\PSoC5/Sample_Hold_1.c **** 
 154:.\Generated_Source\PSoC5/Sample_Hold_1.c **** 
 155:.\Generated_Source\PSoC5/Sample_Hold_1.c **** /*******************************************************************************
 156:.\Generated_Source\PSoC5/Sample_Hold_1.c **** * Function Name: Sample_Hold_1_Start
 157:.\Generated_Source\PSoC5/Sample_Hold_1.c **** ********************************************************************************
 158:.\Generated_Source\PSoC5/Sample_Hold_1.c **** *
 159:.\Generated_Source\PSoC5/Sample_Hold_1.c **** * Summary:
 160:.\Generated_Source\PSoC5/Sample_Hold_1.c **** *  The start function initializes the Sample and Hold with the default values, 
 161:.\Generated_Source\PSoC5/Sample_Hold_1.c **** *  and sets the power to the given level.  A power level of 0, is the same as 
 162:.\Generated_Source\PSoC5/Sample_Hold_1.c **** *  executing the stop function.
 163:.\Generated_Source\PSoC5/Sample_Hold_1.c **** *
 164:.\Generated_Source\PSoC5/Sample_Hold_1.c **** * Parameters:
 165:.\Generated_Source\PSoC5/Sample_Hold_1.c **** *  void
 166:.\Generated_Source\PSoC5/Sample_Hold_1.c **** *
 167:.\Generated_Source\PSoC5/Sample_Hold_1.c **** * Return:
 168:.\Generated_Source\PSoC5/Sample_Hold_1.c **** *  void
 169:.\Generated_Source\PSoC5/Sample_Hold_1.c **** *
 170:.\Generated_Source\PSoC5/Sample_Hold_1.c **** *******************************************************************************/
 171:.\Generated_Source\PSoC5/Sample_Hold_1.c **** void Sample_Hold_1_Start(void) 
 172:.\Generated_Source\PSoC5/Sample_Hold_1.c **** {
 150              		.loc 1 172 0
 151              		.cfi_startproc
 152              		@ args = 0, pretend = 0, frame = 0
 153              		@ frame_needed = 1, uses_anonymous_args = 0
 154 0000 80B5     		push	{r7, lr}
 155              		.cfi_def_cfa_offset 8
 156              		.cfi_offset 7, -8
 157              		.cfi_offset 14, -4
 158 0002 00AF     		add	r7, sp, #0
 159              		.cfi_def_cfa_register 7
 173:.\Generated_Source\PSoC5/Sample_Hold_1.c ****     /* If not Initialized then initialize all required hardware and software */
 174:.\Generated_Source\PSoC5/Sample_Hold_1.c ****     if(Sample_Hold_1_initVar == 0u)
 160              		.loc 1 174 0
 161 0004 054B     		ldr	r3, .L9
 162 0006 1B78     		ldrb	r3, [r3]	@ zero_extendqisi2
 163 0008 002B     		cmp	r3, #0
 164 000a 04D1     		bne	.L8
 175:.\Generated_Source\PSoC5/Sample_Hold_1.c ****     {
 176:.\Generated_Source\PSoC5/Sample_Hold_1.c ****         Sample_Hold_1_Init();
 165              		.loc 1 176 0
 166 000c FFF7FEFF 		bl	Sample_Hold_1_Init
ARM GAS  C:\Users\Randhir\AppData\Local\Temp\ccFd2DXM.s 			page 7


 177:.\Generated_Source\PSoC5/Sample_Hold_1.c ****         Sample_Hold_1_initVar = 1u;
 167              		.loc 1 177 0
 168 0010 024B     		ldr	r3, .L9
 169 0012 0122     		movs	r2, #1
 170 0014 1A70     		strb	r2, [r3]
 171              	.L8:
 178:.\Generated_Source\PSoC5/Sample_Hold_1.c ****     }
 179:.\Generated_Source\PSoC5/Sample_Hold_1.c ****     Sample_Hold_1_Enable();
 172              		.loc 1 179 0
 173 0016 FFF7FEFF 		bl	Sample_Hold_1_Enable
 180:.\Generated_Source\PSoC5/Sample_Hold_1.c **** }
 174              		.loc 1 180 0
 175 001a 80BD     		pop	{r7, pc}
 176              	.L10:
 177              		.align	2
 178              	.L9:
 179 001c 00000000 		.word	Sample_Hold_1_initVar
 180              		.cfi_endproc
 181              	.LFE2:
 182              		.size	Sample_Hold_1_Start, .-Sample_Hold_1_Start
 183              		.section	.text.Sample_Hold_1_Stop,"ax",%progbits
 184              		.align	2
 185              		.global	Sample_Hold_1_Stop
 186              		.thumb
 187              		.thumb_func
 188              		.type	Sample_Hold_1_Stop, %function
 189              	Sample_Hold_1_Stop:
 190              	.LFB3:
 181:.\Generated_Source\PSoC5/Sample_Hold_1.c **** 
 182:.\Generated_Source\PSoC5/Sample_Hold_1.c **** 
 183:.\Generated_Source\PSoC5/Sample_Hold_1.c **** /*******************************************************************************
 184:.\Generated_Source\PSoC5/Sample_Hold_1.c **** * Function Name: Sample_Hold_1_Stop
 185:.\Generated_Source\PSoC5/Sample_Hold_1.c **** ********************************************************************************
 186:.\Generated_Source\PSoC5/Sample_Hold_1.c **** *
 187:.\Generated_Source\PSoC5/Sample_Hold_1.c **** * Summary:
 188:.\Generated_Source\PSoC5/Sample_Hold_1.c **** *  Powers down amplifier to lowest power state.
 189:.\Generated_Source\PSoC5/Sample_Hold_1.c **** *
 190:.\Generated_Source\PSoC5/Sample_Hold_1.c **** * Parameters:
 191:.\Generated_Source\PSoC5/Sample_Hold_1.c **** *  void
 192:.\Generated_Source\PSoC5/Sample_Hold_1.c **** *
 193:.\Generated_Source\PSoC5/Sample_Hold_1.c **** * Return:
 194:.\Generated_Source\PSoC5/Sample_Hold_1.c **** *  void
 195:.\Generated_Source\PSoC5/Sample_Hold_1.c **** *
 196:.\Generated_Source\PSoC5/Sample_Hold_1.c **** *******************************************************************************/
 197:.\Generated_Source\PSoC5/Sample_Hold_1.c **** void Sample_Hold_1_Stop(void) 
 198:.\Generated_Source\PSoC5/Sample_Hold_1.c **** {   
 191              		.loc 1 198 0
 192              		.cfi_startproc
 193              		@ args = 0, pretend = 0, frame = 0
 194              		@ frame_needed = 1, uses_anonymous_args = 0
 195              		@ link register save eliminated.
 196 0000 80B4     		push	{r7}
 197              		.cfi_def_cfa_offset 4
 198              		.cfi_offset 7, -4
 199 0002 00AF     		add	r7, sp, #0
 200              		.cfi_def_cfa_register 7
 199:.\Generated_Source\PSoC5/Sample_Hold_1.c ****     /* Disble power to the Amp in Active mode template */
ARM GAS  C:\Users\Randhir\AppData\Local\Temp\ccFd2DXM.s 			page 8


 200:.\Generated_Source\PSoC5/Sample_Hold_1.c ****     Sample_Hold_1_PM_ACT_CFG_REG &= (uint8)(~Sample_Hold_1_ACT_PWR_EN);
 201              		.loc 1 200 0
 202 0004 094B     		ldr	r3, .L12
 203 0006 094A     		ldr	r2, .L12
 204 0008 1278     		ldrb	r2, [r2]
 205 000a D2B2     		uxtb	r2, r2
 206 000c 22F00102 		bic	r2, r2, #1
 207 0010 D2B2     		uxtb	r2, r2
 208 0012 1A70     		strb	r2, [r3]
 201:.\Generated_Source\PSoC5/Sample_Hold_1.c **** 
 202:.\Generated_Source\PSoC5/Sample_Hold_1.c ****     /* Disble power to the Amp in Alternative Active mode template */
 203:.\Generated_Source\PSoC5/Sample_Hold_1.c ****     Sample_Hold_1_PM_STBY_CFG_REG &= (uint8)(~Sample_Hold_1_STBY_PWR_EN);
 209              		.loc 1 203 0
 210 0014 064B     		ldr	r3, .L12+4
 211 0016 064A     		ldr	r2, .L12+4
 212 0018 1278     		ldrb	r2, [r2]
 213 001a D2B2     		uxtb	r2, r2
 214 001c 22F00102 		bic	r2, r2, #1
 215 0020 D2B2     		uxtb	r2, r2
 216 0022 1A70     		strb	r2, [r3]
 204:.\Generated_Source\PSoC5/Sample_Hold_1.c ****     
 205:.\Generated_Source\PSoC5/Sample_Hold_1.c ****     #if (!CY_PSOC5A)
 206:.\Generated_Source\PSoC5/Sample_Hold_1.c ****         #if (CYDEV_VARIABLE_VDDA == 1u)
 207:.\Generated_Source\PSoC5/Sample_Hold_1.c ****             Sample_Hold_1_BSTCLK_REG &= (uint8)(~Sample_Hold_1_BST_CLK_EN);
 208:.\Generated_Source\PSoC5/Sample_Hold_1.c ****             /* Disable pumps only if there aren't any SC block in use */
 209:.\Generated_Source\PSoC5/Sample_Hold_1.c ****             if ((Sample_Hold_1_PM_ACT_CFG_REG & Sample_Hold_1_PM_ACT_CFG_MASK) == 0u)
 210:.\Generated_Source\PSoC5/Sample_Hold_1.c ****             {
 211:.\Generated_Source\PSoC5/Sample_Hold_1.c ****                 Sample_Hold_1_SC_MISC_REG &= (uint8)(~Sample_Hold_1_PUMP_FORCE);
 212:.\Generated_Source\PSoC5/Sample_Hold_1.c ****                 Sample_Hold_1_PUMP_CR1_REG &= (uint8)(~Sample_Hold_1_PUMP_CR1_SC_CLKSEL);
 213:.\Generated_Source\PSoC5/Sample_Hold_1.c ****                 CyScBoostClk_Stop();
 214:.\Generated_Source\PSoC5/Sample_Hold_1.c ****             }
 215:.\Generated_Source\PSoC5/Sample_Hold_1.c ****         #endif /* CYDEV_VARIABLE_VDDA == 1u */
 216:.\Generated_Source\PSoC5/Sample_Hold_1.c ****     #endif /* (CY_PSOC3 || CY_PSOC5LP) */
 217:.\Generated_Source\PSoC5/Sample_Hold_1.c ****  
 218:.\Generated_Source\PSoC5/Sample_Hold_1.c ****     /* This sets Sample and hold in zero current mode and output routes are valid */
 219:.\Generated_Source\PSoC5/Sample_Hold_1.c ****     #if (CY_PSOC5A)
 220:.\Generated_Source\PSoC5/Sample_Hold_1.c ****         Sample_Hold_1_P5backup.scCR1Reg = Sample_Hold_1_CR1_REG;
 221:.\Generated_Source\PSoC5/Sample_Hold_1.c ****         Sample_Hold_1_P5backup.scCR2Reg = Sample_Hold_1_CR2_REG;
 222:.\Generated_Source\PSoC5/Sample_Hold_1.c ****         Sample_Hold_1_CR1_REG = 0x00u;
 223:.\Generated_Source\PSoC5/Sample_Hold_1.c ****         Sample_Hold_1_CR2_REG = 0x00u;
 224:.\Generated_Source\PSoC5/Sample_Hold_1.c ****         Sample_Hold_1_P5backup.enableState = 1u;
 225:.\Generated_Source\PSoC5/Sample_Hold_1.c ****     #endif /* CY_PSOC5A */
 226:.\Generated_Source\PSoC5/Sample_Hold_1.c **** }
 217              		.loc 1 226 0
 218 0024 BD46     		mov	sp, r7
 219              		@ sp needed
 220 0026 5DF8047B 		ldr	r7, [sp], #4
 221 002a 7047     		bx	lr
 222              	.L13:
 223              		.align	2
 224              	.L12:
 225 002c A9430040 		.word	1073759145
 226 0030 B9430040 		.word	1073759161
 227              		.cfi_endproc
 228              	.LFE3:
 229              		.size	Sample_Hold_1_Stop, .-Sample_Hold_1_Stop
 230              		.section	.text.Sample_Hold_1_SetPower,"ax",%progbits
ARM GAS  C:\Users\Randhir\AppData\Local\Temp\ccFd2DXM.s 			page 9


 231              		.align	2
 232              		.global	Sample_Hold_1_SetPower
 233              		.thumb
 234              		.thumb_func
 235              		.type	Sample_Hold_1_SetPower, %function
 236              	Sample_Hold_1_SetPower:
 237              	.LFB4:
 227:.\Generated_Source\PSoC5/Sample_Hold_1.c **** 
 228:.\Generated_Source\PSoC5/Sample_Hold_1.c **** 
 229:.\Generated_Source\PSoC5/Sample_Hold_1.c **** /*******************************************************************************
 230:.\Generated_Source\PSoC5/Sample_Hold_1.c **** * Function Name: Sample_Hold_1_SetPower
 231:.\Generated_Source\PSoC5/Sample_Hold_1.c **** ********************************************************************************
 232:.\Generated_Source\PSoC5/Sample_Hold_1.c **** *
 233:.\Generated_Source\PSoC5/Sample_Hold_1.c **** * Summary:
 234:.\Generated_Source\PSoC5/Sample_Hold_1.c **** *  Set the power of the Sample/Track and Hold.
 235:.\Generated_Source\PSoC5/Sample_Hold_1.c **** *
 236:.\Generated_Source\PSoC5/Sample_Hold_1.c **** * Parameters:
 237:.\Generated_Source\PSoC5/Sample_Hold_1.c **** *  power: Sets power level between (0) and (3) high power
 238:.\Generated_Source\PSoC5/Sample_Hold_1.c **** *
 239:.\Generated_Source\PSoC5/Sample_Hold_1.c **** * Return:
 240:.\Generated_Source\PSoC5/Sample_Hold_1.c **** *  void
 241:.\Generated_Source\PSoC5/Sample_Hold_1.c **** *
 242:.\Generated_Source\PSoC5/Sample_Hold_1.c **** *******************************************************************************/
 243:.\Generated_Source\PSoC5/Sample_Hold_1.c **** void Sample_Hold_1_SetPower(uint8 power) 
 244:.\Generated_Source\PSoC5/Sample_Hold_1.c **** {
 238              		.loc 1 244 0
 239              		.cfi_startproc
 240              		@ args = 0, pretend = 0, frame = 16
 241              		@ frame_needed = 1, uses_anonymous_args = 0
 242              		@ link register save eliminated.
 243 0000 80B4     		push	{r7}
 244              		.cfi_def_cfa_offset 4
 245              		.cfi_offset 7, -4
 246 0002 85B0     		sub	sp, sp, #20
 247              		.cfi_def_cfa_offset 24
 248 0004 00AF     		add	r7, sp, #0
 249              		.cfi_def_cfa_register 7
 250 0006 0346     		mov	r3, r0
 251 0008 FB71     		strb	r3, [r7, #7]
 245:.\Generated_Source\PSoC5/Sample_Hold_1.c ****     uint8 tmpCR;
 246:.\Generated_Source\PSoC5/Sample_Hold_1.c **** 
 247:.\Generated_Source\PSoC5/Sample_Hold_1.c ****     /* Sets drive bits in SC Block Control Register 1:  SCxx_CR[1:0] */
 248:.\Generated_Source\PSoC5/Sample_Hold_1.c ****     tmpCR = Sample_Hold_1_CR1_REG & (uint8)(~Sample_Hold_1_DRIVE_MASK);
 252              		.loc 1 248 0
 253 000a 0A4B     		ldr	r3, .L15
 254 000c 1B78     		ldrb	r3, [r3]
 255 000e DBB2     		uxtb	r3, r3
 256 0010 23F00303 		bic	r3, r3, #3
 257 0014 FB73     		strb	r3, [r7, #15]
 249:.\Generated_Source\PSoC5/Sample_Hold_1.c ****     tmpCR |= (power & Sample_Hold_1_DRIVE_MASK);
 258              		.loc 1 249 0
 259 0016 FB79     		ldrb	r3, [r7, #7]
 260 0018 03F00303 		and	r3, r3, #3
 261 001c DAB2     		uxtb	r2, r3
 262 001e FB7B     		ldrb	r3, [r7, #15]
 263 0020 1343     		orrs	r3, r3, r2
 264 0022 FB73     		strb	r3, [r7, #15]
ARM GAS  C:\Users\Randhir\AppData\Local\Temp\ccFd2DXM.s 			page 10


 250:.\Generated_Source\PSoC5/Sample_Hold_1.c ****     Sample_Hold_1_CR1_REG = tmpCR;
 265              		.loc 1 250 0
 266 0024 034B     		ldr	r3, .L15
 267 0026 FA7B     		ldrb	r2, [r7, #15]
 268 0028 1A70     		strb	r2, [r3]
 251:.\Generated_Source\PSoC5/Sample_Hold_1.c **** }
 269              		.loc 1 251 0
 270 002a 1437     		adds	r7, r7, #20
 271 002c BD46     		mov	sp, r7
 272              		@ sp needed
 273 002e 5DF8047B 		ldr	r7, [sp], #4
 274 0032 7047     		bx	lr
 275              	.L16:
 276              		.align	2
 277              	.L15:
 278 0034 01580040 		.word	1073764353
 279              		.cfi_endproc
 280              	.LFE4:
 281              		.size	Sample_Hold_1_SetPower, .-Sample_Hold_1_SetPower
 282              		.text
 283              	.Letext0:
 284              		.file 2 ".\\Generated_Source\\PSoC5\\cytypes.h"